; Listing generated by Microsoft (R) Optimizing Compiler Version 19.38.33133.0 

include listing.inc

INCLUDELIB LIBCMTD
INCLUDELIB OLDNAMES

CONST	SEGMENT
$SG124861 DB	'invalid argument', 00H
	ORG $+3
$SG124862 DB	'%s', 00H
	ORG $+9
$SG124863 DB	'C:\Program Files\Microsoft Visual Studio\2022\Community\'
	DB	'VC\Tools\MSVC\14.38.33130\include\xmemory', 00H
	ORG $+14
$SG124864 DB	'C', 00H, ':', 00H, '\', 00H, 'P', 00H, 'r', 00H, 'o', 00H
	DB	'g', 00H, 'r', 00H, 'a', 00H, 'm', 00H, ' ', 00H, 'F', 00H, 'i'
	DB	00H, 'l', 00H, 'e', 00H, 's', 00H, '\', 00H, 'M', 00H, 'i', 00H
	DB	'c', 00H, 'r', 00H, 'o', 00H, 's', 00H, 'o', 00H, 'f', 00H, 't'
	DB	00H, ' ', 00H, 'V', 00H, 'i', 00H, 's', 00H, 'u', 00H, 'a', 00H
	DB	'l', 00H, ' ', 00H, 'S', 00H, 't', 00H, 'u', 00H, 'd', 00H, 'i'
	DB	00H, 'o', 00H, '\', 00H, '2', 00H, '0', 00H, '2', 00H, '2', 00H
	DB	'\', 00H, 'C', 00H, 'o', 00H, 'm', 00H, 'm', 00H, 'u', 00H, 'n'
	DB	00H, 'i', 00H, 't', 00H, 'y', 00H, '\', 00H, 'V', 00H, 'C', 00H
	DB	'\', 00H, 'T', 00H, 'o', 00H, 'o', 00H, 'l', 00H, 's', 00H, '\'
	DB	00H, 'M', 00H, 'S', 00H, 'V', 00H, 'C', 00H, '\', 00H, '1', 00H
	DB	'4', 00H, '.', 00H, '3', 00H, '8', 00H, '.', 00H, '3', 00H, '3'
	DB	00H, '1', 00H, '3', 00H, '0', 00H, '\', 00H, 'i', 00H, 'n', 00H
	DB	'c', 00H, 'l', 00H, 'u', 00H, 'd', 00H, 'e', 00H, '\', 00H, 'x'
	DB	00H, 'm', 00H, 'e', 00H, 'm', 00H, 'o', 00H, 'r', 00H, 'y', 00H
	DB	00H, 00H
$SG124865 DB	00H, 00H
	ORG $+2
$SG124866 DB	'"', 00H, 'i', 00H, 'n', 00H, 'v', 00H, 'a', 00H, 'l', 00H
	DB	'i', 00H, 'd', 00H, ' ', 00H, 'a', 00H, 'r', 00H, 'g', 00H, 'u'
	DB	00H, 'm', 00H, 'e', 00H, 'n', 00H, 't', 00H, '"', 00H, 00H, 00H
CONST	ENDS
PUBLIC	?__empty_global_delete@@YAXPEAX@Z		; __empty_global_delete
PUBLIC	?__empty_global_delete@@YAXPEAX_K@Z		; __empty_global_delete
PUBLIC	??0CAMERA@@QEAA@XZ				; CAMERA::CAMERA
PUBLIC	??1CAMERA@@QEAA@XZ				; CAMERA::~CAMERA
PUBLIC	?Set@CAMERA@@QEAAXXZ				; CAMERA::Set
PUBLIC	?UpdateCamera@CAMERA@@QEAAXXZ			; CAMERA::UpdateCamera
PUBLIC	?ApplyCamera@CAMERA@@QEAAXXZ			; CAMERA::ApplyCamera
PUBLIC	__xmm@80000000800000008000000080000000
EXTRN	?Set@VECTOR@@QEAAXXZ:PROC			; VECTOR::Set
EXTRN	?Set@QUAT@@QEAAXXZ:PROC				; QUAT::Set
EXTRN	??0OBJECT@@QEAA@XZ:PROC				; OBJECT::OBJECT
EXTRN	??1OBJECT@@QEAA@XZ:PROC				; OBJECT::~OBJECT
EXTRN	?Rotate@OBJECT@@QEAAXXZ:PROC			; OBJECT::Rotate
EXTRN	?UpdatePosition@OBJECT@@QEAAXXZ:PROC		; OBJECT::UpdatePosition
EXTRN	??0MATRIX@@QEAA@XZ:PROC				; MATRIX::MATRIX
EXTRN	??1MATRIX@@QEAA@XZ:PROC				; MATRIX::~MATRIX
EXTRN	?LoadIdentity@MATRIX@@QEAAXXZ:PROC		; MATRIX::LoadIdentity
EXTRN	?MatrixInverse@MATRIX@@QEAAXXZ:PROC		; MATRIX::MatrixInverse
EXTRN	?QuatToMatrix@MATRIX@@QEAAXVQUAT@@@Z:PROC	; MATRIX::QuatToMatrix
EXTRN	__imp_glLoadMatrixf:PROC
EXTRN	__imp_glTranslatef:PROC
EXTRN	_RTC_InitBase:PROC
EXTRN	_RTC_Shutdown:PROC
EXTRN	__CxxFrameHandler4:PROC
EXTRN	_fltused:DWORD
;	COMDAT pdata
pdata	SEGMENT
$pdata$?__empty_global_delete@@YAXPEAX@Z DD imagerel $LN3
	DD	imagerel $LN3+8
	DD	imagerel $unwind$?__empty_global_delete@@YAXPEAX@Z
pdata	ENDS
;	COMDAT pdata
pdata	SEGMENT
$pdata$?__empty_global_delete@@YAXPEAX_K@Z DD imagerel $LN3
	DD	imagerel $LN3+13
	DD	imagerel $unwind$?__empty_global_delete@@YAXPEAX_K@Z
pdata	ENDS
pdata	SEGMENT
$pdata$??0CAMERA@@QEAA@XZ DD imagerel $LN5
	DD	imagerel $LN5+50
	DD	imagerel $unwind$??0CAMERA@@QEAA@XZ
pdata	ENDS
pdata	SEGMENT
$pdata$?dtor$0@?0???0CAMERA@@QEAA@XZ@4HA DD imagerel ?dtor$0@?0???0CAMERA@@QEAA@XZ@4HA
	DD	imagerel ?dtor$0@?0???0CAMERA@@QEAA@XZ@4HA+35
	DD	imagerel $unwind$?dtor$0@?0???0CAMERA@@QEAA@XZ@4HA
pdata	ENDS
pdata	SEGMENT
$pdata$??1CAMERA@@QEAA@XZ DD imagerel $LN3
	DD	imagerel $LN3+43
	DD	imagerel $unwind$??1CAMERA@@QEAA@XZ
$pdata$?Set@CAMERA@@QEAAXXZ DD imagerel $LN3
	DD	imagerel $LN3+99
	DD	imagerel $unwind$?Set@CAMERA@@QEAAXXZ
$pdata$?UpdateCamera@CAMERA@@QEAAXXZ DD imagerel $LN3
	DD	imagerel $LN3+36
	DD	imagerel $unwind$?UpdateCamera@CAMERA@@QEAAXXZ
$pdata$?ApplyCamera@CAMERA@@QEAAXXZ DD imagerel $LN3
	DD	imagerel $LN3+167
	DD	imagerel $unwind$?ApplyCamera@CAMERA@@QEAAXXZ
pdata	ENDS
;	COMDAT __xmm@80000000800000008000000080000000
CONST	SEGMENT
__xmm@80000000800000008000000080000000 DB 00H, 00H, 00H, 080H, 00H, 00H, 00H
	DB	080H, 00H, 00H, 00H, 080H, 00H, 00H, 00H, 080H
CONST	ENDS
;	COMDAT rtc$TMZ
rtc$TMZ	SEGMENT
_RTC_Shutdown.rtc$TMZ DQ FLAT:_RTC_Shutdown
rtc$TMZ	ENDS
;	COMDAT rtc$IMZ
rtc$IMZ	SEGMENT
_RTC_InitBase.rtc$IMZ DQ FLAT:_RTC_InitBase
rtc$IMZ	ENDS
voltbl	SEGMENT
_volmd	DD	0ffffffffH
	DDSymXIndex: 	FLAT:?dtor$0@?0???0CAMERA@@QEAA@XZ@4HA
	DD	00H
	DD	05H
voltbl	ENDS
xdata	SEGMENT
$unwind$??0CAMERA@@QEAA@XZ DD 020a11H
	DD	07006320aH
	DD	imagerel __CxxFrameHandler4
	DD	imagerel $cppxdata$??0CAMERA@@QEAA@XZ
$cppxdata$??0CAMERA@@QEAA@XZ DB 028H
	DD	imagerel $stateUnwindMap$??0CAMERA@@QEAA@XZ
	DD	imagerel $ip2state$??0CAMERA@@QEAA@XZ
$stateUnwindMap$??0CAMERA@@QEAA@XZ DB 02H
	DB	0eH
	DD	imagerel ?dtor$0@?0???0CAMERA@@QEAA@XZ@4HA
$ip2state$??0CAMERA@@QEAA@XZ DB 06H
	DB	00H
	DB	00H
	DB	'*'
	DB	02H
	DB	'$'
	DB	00H
	ORG $+2
$unwind$?dtor$0@?0???0CAMERA@@QEAA@XZ@4HA DD 031001H
	DD	0700c4210H
	DD	0500bH
$unwind$??1CAMERA@@QEAA@XZ DD 020a01H
	DD	07006320aH
$unwind$?Set@CAMERA@@QEAAXXZ DD 020a01H
	DD	07006320aH
$unwind$?UpdateCamera@CAMERA@@QEAAXXZ DD 020a01H
	DD	07006320aH
$unwind$?ApplyCamera@CAMERA@@QEAAXXZ DD 030b01H
	DD	07007820bH
	DD	06006H
xdata	ENDS
;	COMDAT xdata
xdata	SEGMENT
$unwind$?__empty_global_delete@@YAXPEAX_K@Z DD 010b01H
	DD	0700bH
xdata	ENDS
;	COMDAT xdata
xdata	SEGMENT
$unwind$?__empty_global_delete@@YAXPEAX@Z DD 010601H
	DD	07006H
xdata	ENDS
; Function compile flags: /Odtp /RTCsu
_TEXT	SEGMENT
$T1 = 32
tv131 = 48
this$ = 96
?ApplyCamera@CAMERA@@QEAAXXZ PROC			; CAMERA::ApplyCamera
; File D:\dev\cpp\40_BIM\01_AlanBaylis\cpp\OGLMDI2_VS2022\Build01\camera.cpp
; Line 33
$LN3:
	mov	QWORD PTR [rsp+8], rcx
	push	rsi
	push	rdi
	sub	rsp, 72					; 00000048H
; Line 34
	lea	rax, QWORD PTR $T1[rsp]
	mov	rdi, rax
	mov	rsi, QWORD PTR this$[rsp]
	mov	ecx, 16
	rep movsb
	mov	rax, QWORD PTR this$[rsp]
	add	rax, 56					; 00000038H
	lea	rdx, QWORD PTR $T1[rsp]
	mov	rcx, rax
	call	?QuatToMatrix@MATRIX@@QEAAXVQUAT@@@Z	; MATRIX::QuatToMatrix
; Line 35
	mov	rax, QWORD PTR this$[rsp]
	add	rax, 56					; 00000038H
	mov	rcx, rax
	call	?MatrixInverse@MATRIX@@QEAAXXZ		; MATRIX::MatrixInverse
; Line 37
	mov	rax, QWORD PTR this$[rsp]
	add	rax, 56					; 00000038H
	mov	rcx, rax
	call	QWORD PTR __imp_glLoadMatrixf
; Line 38
	mov	rax, QWORD PTR this$[rsp]
	movss	xmm0, DWORD PTR [rax+24]
	xorps	xmm0, DWORD PTR __xmm@80000000800000008000000080000000
	mov	rax, QWORD PTR this$[rsp]
	movss	xmm1, DWORD PTR [rax+20]
	xorps	xmm1, DWORD PTR __xmm@80000000800000008000000080000000
	mov	rax, QWORD PTR this$[rsp]
	movss	xmm2, DWORD PTR [rax+16]
	xorps	xmm2, DWORD PTR __xmm@80000000800000008000000080000000
	movss	DWORD PTR tv131[rsp], xmm2
	movaps	xmm2, xmm0
	movss	xmm0, DWORD PTR tv131[rsp]
	call	QWORD PTR __imp_glTranslatef
; Line 39
	add	rsp, 72					; 00000048H
	pop	rdi
	pop	rsi
	ret	0
?ApplyCamera@CAMERA@@QEAAXXZ ENDP			; CAMERA::ApplyCamera
_TEXT	ENDS
; Function compile flags: /Odtp /RTCsu
_TEXT	SEGMENT
this$ = 48
?UpdateCamera@CAMERA@@QEAAXXZ PROC			; CAMERA::UpdateCamera
; File D:\dev\cpp\40_BIM\01_AlanBaylis\cpp\OGLMDI2_VS2022\Build01\camera.cpp
; Line 26
$LN3:
	mov	QWORD PTR [rsp+8], rcx
	push	rdi
	sub	rsp, 32					; 00000020H
; Line 27
	mov	rcx, QWORD PTR this$[rsp]
	call	?Rotate@OBJECT@@QEAAXXZ			; OBJECT::Rotate
; Line 29
	mov	rcx, QWORD PTR this$[rsp]
	call	?UpdatePosition@OBJECT@@QEAAXXZ		; OBJECT::UpdatePosition
; Line 30
	add	rsp, 32					; 00000020H
	pop	rdi
	ret	0
?UpdateCamera@CAMERA@@QEAAXXZ ENDP			; CAMERA::UpdateCamera
_TEXT	ENDS
; Function compile flags: /Odtp /RTCsu
_TEXT	SEGMENT
this$ = 48
?Set@CAMERA@@QEAAXXZ PROC				; CAMERA::Set
; File D:\dev\cpp\40_BIM\01_AlanBaylis\cpp\OGLMDI2_VS2022\Build01\camera.cpp
; Line 16
$LN3:
	mov	QWORD PTR [rsp+8], rcx
	push	rdi
	sub	rsp, 32					; 00000020H
; Line 17
	mov	rcx, QWORD PTR this$[rsp]
	call	?Set@QUAT@@QEAAXXZ			; QUAT::Set
; Line 18
	mov	rax, QWORD PTR this$[rsp]
	add	rax, 16
	mov	rcx, rax
	call	?Set@VECTOR@@QEAAXXZ			; VECTOR::Set
; Line 19
	mov	rax, QWORD PTR this$[rsp]
	xorps	xmm0, xmm0
	movss	DWORD PTR [rax+28], xmm0
; Line 20
	mov	rax, QWORD PTR this$[rsp]
	xorps	xmm0, xmm0
	movss	DWORD PTR [rax+32], xmm0
; Line 21
	mov	rax, QWORD PTR this$[rsp]
	xorps	xmm0, xmm0
	movss	DWORD PTR [rax+36], xmm0
; Line 22
	mov	rax, QWORD PTR this$[rsp]
	add	rax, 56					; 00000038H
	mov	rcx, rax
	call	?LoadIdentity@MATRIX@@QEAAXXZ		; MATRIX::LoadIdentity
; Line 23
	add	rsp, 32					; 00000020H
	pop	rdi
	ret	0
?Set@CAMERA@@QEAAXXZ ENDP				; CAMERA::Set
_TEXT	ENDS
; Function compile flags: /Odtp /RTCsu
_TEXT	SEGMENT
this$ = 48
??1CAMERA@@QEAA@XZ PROC					; CAMERA::~CAMERA
; File D:\dev\cpp\40_BIM\01_AlanBaylis\cpp\OGLMDI2_VS2022\Build01\camera.cpp
; Line 12
$LN3:
	mov	QWORD PTR [rsp+8], rcx
	push	rdi
	sub	rsp, 32					; 00000020H
; Line 13
	mov	rax, QWORD PTR this$[rsp]
	add	rax, 56					; 00000038H
	mov	rcx, rax
	call	??1MATRIX@@QEAA@XZ			; MATRIX::~MATRIX
	mov	rcx, QWORD PTR this$[rsp]
	call	??1OBJECT@@QEAA@XZ			; OBJECT::~OBJECT
	add	rsp, 32					; 00000020H
	pop	rdi
	ret	0
??1CAMERA@@QEAA@XZ ENDP					; CAMERA::~CAMERA
_TEXT	ENDS
; Function compile flags: /Odtp /RTCsu
_TEXT	SEGMENT
this$ = 48
??0CAMERA@@QEAA@XZ PROC					; CAMERA::CAMERA
; File D:\dev\cpp\40_BIM\01_AlanBaylis\cpp\OGLMDI2_VS2022\Build01\camera.cpp
; Line 8
$LN5:
	mov	QWORD PTR [rsp+8], rcx
	push	rdi
	sub	rsp, 32					; 00000020H
	mov	rcx, QWORD PTR this$[rsp]
	call	??0OBJECT@@QEAA@XZ			; OBJECT::OBJECT
	npad	1
	mov	rax, QWORD PTR this$[rsp]
	add	rax, 56					; 00000038H
	mov	rcx, rax
	call	??0MATRIX@@QEAA@XZ			; MATRIX::MATRIX
	npad	1
; Line 9
	mov	rax, QWORD PTR this$[rsp]
	add	rsp, 32					; 00000020H
	pop	rdi
	ret	0
??0CAMERA@@QEAA@XZ ENDP					; CAMERA::CAMERA
_TEXT	ENDS
; Function compile flags: /Odtp /RTCsu
text$x	SEGMENT
this$ = 48
?dtor$0@?0???0CAMERA@@QEAA@XZ@4HA PROC			; `CAMERA::CAMERA'::`1'::dtor$0
	mov	QWORD PTR [rsp+8], rcx
	mov	QWORD PTR [rsp+16], rdx
	push	rbp
	push	rdi
	sub	rsp, 40					; 00000028H
	mov	rbp, rdx
	mov	rcx, QWORD PTR this$[rbp]
	call	??1OBJECT@@QEAA@XZ			; OBJECT::~OBJECT
	add	rsp, 40					; 00000028H
	pop	rdi
	pop	rbp
	ret	0
?dtor$0@?0???0CAMERA@@QEAA@XZ@4HA ENDP			; `CAMERA::CAMERA'::`1'::dtor$0
text$x	ENDS
; Function compile flags: /Odtp /RTCsu
;	COMDAT ?__empty_global_delete@@YAXPEAX_K@Z
_TEXT	SEGMENT
__formal$ = 16
__formal$ = 24
?__empty_global_delete@@YAXPEAX_K@Z PROC		; __empty_global_delete, COMDAT
; File D:\dev\cpp\40_BIM\01_AlanBaylis\cpp\OGLMDI2_VS2022\Build01\camera.cpp
; Line 40
$LN3:
	mov	QWORD PTR [rsp+16], rdx
	mov	QWORD PTR [rsp+8], rcx
	push	rdi
	pop	rdi
	ret	0
?__empty_global_delete@@YAXPEAX_K@Z ENDP		; __empty_global_delete
_TEXT	ENDS
; Function compile flags: /Odtp /RTCsu
;	COMDAT ?__empty_global_delete@@YAXPEAX@Z
_TEXT	SEGMENT
__formal$ = 16
?__empty_global_delete@@YAXPEAX@Z PROC			; __empty_global_delete, COMDAT
; File D:\dev\cpp\40_BIM\01_AlanBaylis\cpp\OGLMDI2_VS2022\Build01\camera.cpp
; Line 40
$LN3:
	mov	QWORD PTR [rsp+8], rcx
	push	rdi
	pop	rdi
	ret	0
?__empty_global_delete@@YAXPEAX@Z ENDP			; __empty_global_delete
_TEXT	ENDS
END
