; Listing generated by Microsoft (R) Optimizing Compiler Version 19.38.33133.0 

include listing.inc

INCLUDELIB LIBCMTD
INCLUDELIB OLDNAMES

CONST	SEGMENT
$SG124909 DB	'invalid argument', 00H
	ORG $+3
$SG124910 DB	'%s', 00H
	ORG $+9
$SG124911 DB	'C:\Program Files\Microsoft Visual Studio\2022\Community\'
	DB	'VC\Tools\MSVC\14.38.33130\include\xmemory', 00H
	ORG $+14
$SG124912 DB	'C', 00H, ':', 00H, '\', 00H, 'P', 00H, 'r', 00H, 'o', 00H
	DB	'g', 00H, 'r', 00H, 'a', 00H, 'm', 00H, ' ', 00H, 'F', 00H, 'i'
	DB	00H, 'l', 00H, 'e', 00H, 's', 00H, '\', 00H, 'M', 00H, 'i', 00H
	DB	'c', 00H, 'r', 00H, 'o', 00H, 's', 00H, 'o', 00H, 'f', 00H, 't'
	DB	00H, ' ', 00H, 'V', 00H, 'i', 00H, 's', 00H, 'u', 00H, 'a', 00H
	DB	'l', 00H, ' ', 00H, 'S', 00H, 't', 00H, 'u', 00H, 'd', 00H, 'i'
	DB	00H, 'o', 00H, '\', 00H, '2', 00H, '0', 00H, '2', 00H, '2', 00H
	DB	'\', 00H, 'C', 00H, 'o', 00H, 'm', 00H, 'm', 00H, 'u', 00H, 'n'
	DB	00H, 'i', 00H, 't', 00H, 'y', 00H, '\', 00H, 'V', 00H, 'C', 00H
	DB	'\', 00H, 'T', 00H, 'o', 00H, 'o', 00H, 'l', 00H, 's', 00H, '\'
	DB	00H, 'M', 00H, 'S', 00H, 'V', 00H, 'C', 00H, '\', 00H, '1', 00H
	DB	'4', 00H, '.', 00H, '3', 00H, '8', 00H, '.', 00H, '3', 00H, '3'
	DB	00H, '1', 00H, '3', 00H, '0', 00H, '\', 00H, 'i', 00H, 'n', 00H
	DB	'c', 00H, 'l', 00H, 'u', 00H, 'd', 00H, 'e', 00H, '\', 00H, 'x'
	DB	00H, 'm', 00H, 'e', 00H, 'm', 00H, 'o', 00H, 'r', 00H, 'y', 00H
	DB	00H, 00H
$SG124913 DB	00H, 00H
	ORG $+2
$SG124914 DB	'"', 00H, 'i', 00H, 'n', 00H, 'v', 00H, 'a', 00H, 'l', 00H
	DB	'i', 00H, 'd', 00H, ' ', 00H, 'a', 00H, 'r', 00H, 'g', 00H, 'u'
	DB	00H, 'm', 00H, 'e', 00H, 'n', 00H, 't', 00H, '"', 00H, 00H, 00H
	ORG $+2
$SG122626 DB	'rb', 00H
	ORG $+1
$SG122630 DB	'Error', 00H
	ORG $+6
$SG122631 DB	'Image file was not found', 00H
	ORG $+3
$SG122633 DB	'Error', 00H
	ORG $+14
$SG122634 DB	'Image cannot be indexed color. ', 0dH, 0aH, ' Convert th'
	DB	'e image to RGB or RGBA.', 00H
$SG122636 DB	'Error', 00H
	ORG $+6
$SG122637 DB	'Image cannot be greyscale color. ', 0dH, 0aH, ' Convert '
	DB	'the image to RGB or RGBA.', 00H
	ORG $+2
$SG122640 DB	'Error', 00H
	ORG $+2
$SG122641 DB	'Image cannot be compressed. ', 0dH, 0aH, ' Convert the i'
	DB	'mage to an uncompressed format.', 00H
$SG122646 DB	'Error', 00H
	ORG $+6
$SG122647 DB	'Image must have a width and height greater than 0', 00H
	ORG $+2
$SG122649 DB	'Error', 00H
	ORG $+6
$SG122650 DB	'Image must be 24 or 32 bit', 00H
	ORG $+1
$SG122654 DB	'Error', 00H
	ORG $+6
$SG122655 DB	'Image load failed for unknown reason.', 00H
CONST	ENDS
PUBLIC	?__empty_global_delete@@YAXPEAX@Z		; __empty_global_delete
PUBLIC	?__empty_global_delete@@YAXPEAX_K@Z		; __empty_global_delete
PUBLIC	?LoadTGA@@YA_NPEAVTEXTURE@@PEAD@Z		; LoadTGA
PUBLIC	?SetGLProperties@@YAXXZ				; SetGLProperties
PUBLIC	?SetGLView@@YAXHH@Z				; SetGLView
PUBLIC	?SetGLMaterial@@YAXXZ				; SetGLMaterial
PUBLIC	__real@3ecccccd
PUBLIC	__real@3f4ccccd
PUBLIC	__real@3f666666
PUBLIC	__real@3f800000
PUBLIC	__real@3fb999999999999a
PUBLIC	__real@3ff0000000000000
PUBLIC	__real@4046800000000000
PUBLIC	__real@4069000000000000
PUBLIC	__real@42a00000
PUBLIC	__real@46040000
PUBLIC	__real@46180400
PUBLIC	__real@461c0c00
EXTRN	free:PROC
EXTRN	malloc:PROC
EXTRN	fclose:PROC
EXTRN	fopen:PROC
EXTRN	fread:PROC
EXTRN	memcmp:PROC
EXTRN	__imp_MessageBoxA:PROC
EXTRN	__imp_glBindTexture:PROC
EXTRN	__imp_glClearColor:PROC
EXTRN	__imp_glClearDepth:PROC
EXTRN	__imp_glCullFace:PROC
EXTRN	__imp_glDepthFunc:PROC
EXTRN	__imp_glEnable:PROC
EXTRN	__imp_glGenTextures:PROC
EXTRN	__imp_glLoadIdentity:PROC
EXTRN	__imp_glMaterialfv:PROC
EXTRN	__imp_glMatrixMode:PROC
EXTRN	__imp_glShadeModel:PROC
EXTRN	__imp_glTexEnvf:PROC
EXTRN	__imp_glTexImage2D:PROC
EXTRN	__imp_glTexParameterf:PROC
EXTRN	__imp_glViewport:PROC
EXTRN	gluPerspective:PROC
EXTRN	gluBuild2DMipmaps:PROC
EXTRN	_RTC_CheckStackVars:PROC
EXTRN	_RTC_InitBase:PROC
EXTRN	_RTC_Shutdown:PROC
EXTRN	__GSHandlerCheck:PROC
EXTRN	__security_check_cookie:PROC
EXTRN	__security_cookie:QWORD
EXTRN	_fltused:DWORD
;	COMDAT pdata
pdata	SEGMENT
$pdata$?__empty_global_delete@@YAXPEAX@Z DD imagerel $LN3
	DD	imagerel $LN3+8
	DD	imagerel $unwind$?__empty_global_delete@@YAXPEAX@Z
pdata	ENDS
;	COMDAT pdata
pdata	SEGMENT
$pdata$?__empty_global_delete@@YAXPEAX_K@Z DD imagerel $LN3
	DD	imagerel $LN3+13
	DD	imagerel $unwind$?__empty_global_delete@@YAXPEAX_K@Z
pdata	ENDS
pdata	SEGMENT
$pdata$?LoadTGA@@YA_NPEAVTEXTURE@@PEAD@Z DD imagerel $LN22
	DD	imagerel $LN22+1774
	DD	imagerel $unwind$?LoadTGA@@YA_NPEAVTEXTURE@@PEAD@Z
$pdata$?SetGLProperties@@YAXXZ DD imagerel $LN3
	DD	imagerel $LN3+110
	DD	imagerel $unwind$?SetGLProperties@@YAXXZ
$pdata$?SetGLView@@YAXHH@Z DD imagerel $LN4
	DD	imagerel $LN4+140
	DD	imagerel $unwind$?SetGLView@@YAXHH@Z
$pdata$?SetGLMaterial@@YAXXZ DD imagerel $LN3
	DD	imagerel $LN3+448
	DD	imagerel $unwind$?SetGLMaterial@@YAXXZ
pdata	ENDS
;	COMDAT __real@461c0c00
CONST	SEGMENT
__real@461c0c00 DD 0461c0c00r			; 9987
CONST	ENDS
;	COMDAT __real@46180400
CONST	SEGMENT
__real@46180400 DD 046180400r			; 9729
CONST	ENDS
;	COMDAT __real@46040000
CONST	SEGMENT
__real@46040000 DD 046040000r			; 8448
CONST	ENDS
;	COMDAT __real@42a00000
CONST	SEGMENT
__real@42a00000 DD 042a00000r			; 80
CONST	ENDS
;	COMDAT __real@4069000000000000
CONST	SEGMENT
__real@4069000000000000 DQ 04069000000000000r	; 200
CONST	ENDS
;	COMDAT __real@4046800000000000
CONST	SEGMENT
__real@4046800000000000 DQ 04046800000000000r	; 45
CONST	ENDS
;	COMDAT __real@3ff0000000000000
CONST	SEGMENT
__real@3ff0000000000000 DQ 03ff0000000000000r	; 1
CONST	ENDS
;	COMDAT __real@3fb999999999999a
CONST	SEGMENT
__real@3fb999999999999a DQ 03fb999999999999ar	; 0.1
CONST	ENDS
;	COMDAT __real@3f800000
CONST	SEGMENT
__real@3f800000 DD 03f800000r			; 1
CONST	ENDS
;	COMDAT __real@3f666666
CONST	SEGMENT
__real@3f666666 DD 03f666666r			; 0.9
CONST	ENDS
;	COMDAT __real@3f4ccccd
CONST	SEGMENT
__real@3f4ccccd DD 03f4ccccdr			; 0.8
CONST	ENDS
;	COMDAT __real@3ecccccd
CONST	SEGMENT
__real@3ecccccd DD 03ecccccdr			; 0.4
CONST	ENDS
;	COMDAT rtc$TMZ
rtc$TMZ	SEGMENT
_RTC_Shutdown.rtc$TMZ DQ FLAT:_RTC_Shutdown
rtc$TMZ	ENDS
;	COMDAT rtc$IMZ
rtc$IMZ	SEGMENT
_RTC_InitBase.rtc$IMZ DQ FLAT:_RTC_InitBase
rtc$IMZ	ENDS
voltbl	SEGMENT
_volmd	DD	0ffffffffH
	DDSymXIndex: 	FLAT:?SetGLMaterial@@YAXXZ
	DD	024H
	DD	01a7H
_volmd	DD	0ffffffffH
	DDSymXIndex: 	FLAT:?LoadTGA@@YA_NPEAVTEXTURE@@PEAD@Z
	DD	035H
	DD	06d5H
voltbl	ENDS
xdata	SEGMENT
$unwind$?LoadTGA@@YA_NPEAVTEXTURE@@PEAD@Z DD 033d19H
	DD	0200112H
	DD	0700bH
	DD	imagerel __GSHandlerCheck
	DD	0f0H
$unwind$?SetGLProperties@@YAXXZ DD 020601H
	DD	070023206H
$unwind$?SetGLView@@YAXHH@Z DD 020d01H
	DD	07009320dH
$unwind$?SetGLMaterial@@YAXXZ DD 032c19H
	DD	0220109H
	DD	07002H
	DD	imagerel __GSHandlerCheck
	DD	0100H
xdata	ENDS
CONST	SEGMENT
	ORG $+2
?LoadTGA@@YA_NPEAVTEXTURE@@PEAD@Z$rtcName$0 DB 054H	; LoadTGA
	DB	047H
	DB	041H
	DB	068H
	DB	065H
	DB	061H
	DB	064H
	DB	065H
	DB	072H
	DB	00H
	ORG $+6
?LoadTGA@@YA_NPEAVTEXTURE@@PEAD@Z$rtcName$1 DB 054H	; LoadTGA
	DB	047H
	DB	041H
	DB	063H
	DB	06fH
	DB	06dH
	DB	070H
	DB	061H
	DB	072H
	DB	065H
	DB	00H
	ORG $+1
?LoadTGA@@YA_NPEAVTEXTURE@@PEAD@Z$rtcName$2 DB 068H	; LoadTGA
	DB	065H
	DB	061H
	DB	064H
	DB	065H
	DB	072H
	DB	00H
	ORG $+5
?LoadTGA@@YA_NPEAVTEXTURE@@PEAD@Z$rtcVarDesc DD 0b4H	; LoadTGA
	DD	06H
	DQ	FLAT:?LoadTGA@@YA_NPEAVTEXTURE@@PEAD@Z$rtcName$2
	DD	088H
	DD	0cH
	DQ	FLAT:?LoadTGA@@YA_NPEAVTEXTURE@@PEAD@Z$rtcName$1
	DD	058H
	DD	0cH
	DQ	FLAT:?LoadTGA@@YA_NPEAVTEXTURE@@PEAD@Z$rtcName$0
	ORG $+144
?LoadTGA@@YA_NPEAVTEXTURE@@PEAD@Z$rtcFrameData DD 03H	; LoadTGA
	DD	00H
	DQ	FLAT:?LoadTGA@@YA_NPEAVTEXTURE@@PEAD@Z$rtcVarDesc
?SetGLMaterial@@YAXXZ$rtcName$0 DB 06eH			; SetGLMaterial
	DB	06fH
	DB	05fH
	DB	06dH
	DB	061H
	DB	074H
	DB	00H
	ORG $+1
?SetGLMaterial@@YAXXZ$rtcName$1 DB 06dH			; SetGLMaterial
	DB	061H
	DB	074H
	DB	05fH
	DB	061H
	DB	06dH
	DB	062H
	DB	069H
	DB	065H
	DB	06eH
	DB	074H
	DB	00H
	ORG $+4
?SetGLMaterial@@YAXXZ$rtcName$2 DB 06dH			; SetGLMaterial
	DB	061H
	DB	074H
	DB	05fH
	DB	064H
	DB	069H
	DB	066H
	DB	066H
	DB	075H
	DB	073H
	DB	065H
	DB	00H
	ORG $+4
?SetGLMaterial@@YAXXZ$rtcName$3 DB 06dH			; SetGLMaterial
	DB	061H
	DB	074H
	DB	05fH
	DB	073H
	DB	070H
	DB	065H
	DB	063H
	DB	075H
	DB	06cH
	DB	061H
	DB	072H
	DB	00H
	ORG $+3
?SetGLMaterial@@YAXXZ$rtcName$4 DB 068H			; SetGLMaterial
	DB	069H
	DB	067H
	DB	068H
	DB	05fH
	DB	073H
	DB	068H
	DB	069H
	DB	06eH
	DB	069H
	DB	06eH
	DB	065H
	DB	073H
	DB	073H
	DB	00H
	ORG $+9
?SetGLMaterial@@YAXXZ$rtcVarDesc DD 0e4H		; SetGLMaterial
	DD	04H
	DQ	FLAT:?SetGLMaterial@@YAXXZ$rtcName$4
	DD	0b8H
	DD	010H
	DQ	FLAT:?SetGLMaterial@@YAXXZ$rtcName$3
	DD	088H
	DD	010H
	DQ	FLAT:?SetGLMaterial@@YAXXZ$rtcName$2
	DD	058H
	DD	010H
	DQ	FLAT:?SetGLMaterial@@YAXXZ$rtcName$1
	DD	028H
	DD	010H
	DQ	FLAT:?SetGLMaterial@@YAXXZ$rtcName$0
	ORG $+240
?SetGLMaterial@@YAXXZ$rtcFrameData DD 05H		; SetGLMaterial
	DD	00H
	DQ	FLAT:?SetGLMaterial@@YAXXZ$rtcVarDesc
CONST	ENDS
;	COMDAT xdata
xdata	SEGMENT
$unwind$?__empty_global_delete@@YAXPEAX_K@Z DD 010b01H
	DD	0700bH
xdata	ENDS
;	COMDAT xdata
xdata	SEGMENT
$unwind$?__empty_global_delete@@YAXPEAX@Z DD 010601H
	DD	07006H
xdata	ENDS
; Function compile flags: /Odtp /RTCsu
_TEXT	SEGMENT
no_mat$ = 40
mat_ambient$ = 88
mat_diffuse$ = 136
mat_specular$ = 184
high_shininess$ = 228
__$ArrayPad$ = 256
?SetGLMaterial@@YAXXZ PROC				; SetGLMaterial
; File D:\dev\cpp\40_BIM\01_AlanBaylis\cpp\OGLMDI2_VS2022\Build01\general.cpp
; Line 109
$LN3:
	push	rdi
	sub	rsp, 272				; 00000110H
	lea	rdi, QWORD PTR [rsp+32]
	mov	ecx, 60					; 0000003cH
	mov	eax, -858993460				; ccccccccH
	rep stosd
	mov	rax, QWORD PTR __security_cookie
	xor	rax, rsp
	mov	QWORD PTR __$ArrayPad$[rsp], rax
; Line 110
	xorps	xmm0, xmm0
	movss	DWORD PTR no_mat$[rsp], xmm0
	xorps	xmm0, xmm0
	movss	DWORD PTR no_mat$[rsp+4], xmm0
	xorps	xmm0, xmm0
	movss	DWORD PTR no_mat$[rsp+8], xmm0
	movss	xmm0, DWORD PTR __real@3f800000
	movss	DWORD PTR no_mat$[rsp+12], xmm0
; Line 111
	movss	xmm0, DWORD PTR __real@3ecccccd
	movss	DWORD PTR mat_ambient$[rsp], xmm0
	movss	xmm0, DWORD PTR __real@3ecccccd
	movss	DWORD PTR mat_ambient$[rsp+4], xmm0
	movss	xmm0, DWORD PTR __real@3ecccccd
	movss	DWORD PTR mat_ambient$[rsp+8], xmm0
	movss	xmm0, DWORD PTR __real@3f800000
	movss	DWORD PTR mat_ambient$[rsp+12], xmm0
; Line 112
	movss	xmm0, DWORD PTR __real@3f4ccccd
	movss	DWORD PTR mat_diffuse$[rsp], xmm0
	movss	xmm0, DWORD PTR __real@3f4ccccd
	movss	DWORD PTR mat_diffuse$[rsp+4], xmm0
	movss	xmm0, DWORD PTR __real@3f4ccccd
	movss	DWORD PTR mat_diffuse$[rsp+8], xmm0
	movss	xmm0, DWORD PTR __real@3f800000
	movss	DWORD PTR mat_diffuse$[rsp+12], xmm0
; Line 113
	movss	xmm0, DWORD PTR __real@3f666666
	movss	DWORD PTR mat_specular$[rsp], xmm0
	movss	xmm0, DWORD PTR __real@3f666666
	movss	DWORD PTR mat_specular$[rsp+4], xmm0
	movss	xmm0, DWORD PTR __real@3f666666
	movss	DWORD PTR mat_specular$[rsp+8], xmm0
	movss	xmm0, DWORD PTR __real@3f800000
	movss	DWORD PTR mat_specular$[rsp+12], xmm0
; Line 114
	movss	xmm0, DWORD PTR __real@42a00000
	movss	DWORD PTR high_shininess$[rsp], xmm0
; Line 116
	lea	r8, QWORD PTR mat_ambient$[rsp]
	mov	edx, 4608				; 00001200H
	mov	ecx, 1028				; 00000404H
	call	QWORD PTR __imp_glMaterialfv
; Line 117
	lea	r8, QWORD PTR mat_specular$[rsp]
	mov	edx, 4610				; 00001202H
	mov	ecx, 1028				; 00000404H
	call	QWORD PTR __imp_glMaterialfv
; Line 118
	lea	r8, QWORD PTR mat_diffuse$[rsp]
	mov	edx, 4609				; 00001201H
	mov	ecx, 1028				; 00000404H
	call	QWORD PTR __imp_glMaterialfv
; Line 119
	lea	r8, QWORD PTR no_mat$[rsp]
	mov	edx, 5632				; 00001600H
	mov	ecx, 1028				; 00000404H
	call	QWORD PTR __imp_glMaterialfv
; Line 120
	lea	r8, QWORD PTR high_shininess$[rsp]
	mov	edx, 5633				; 00001601H
	mov	ecx, 1028				; 00000404H
	call	QWORD PTR __imp_glMaterialfv
; Line 121
	mov	rcx, rsp
	lea	rdx, OFFSET FLAT:?SetGLMaterial@@YAXXZ$rtcFrameData
	call	_RTC_CheckStackVars
	mov	rcx, QWORD PTR __$ArrayPad$[rsp]
	xor	rcx, rsp
	call	__security_check_cookie
	add	rsp, 272				; 00000110H
	pop	rdi
	ret	0
?SetGLMaterial@@YAXXZ ENDP				; SetGLMaterial
_TEXT	ENDS
; Function compile flags: /Odtp /RTCsu
_TEXT	SEGMENT
Width$ = 48
Height$ = 56
?SetGLView@@YAXHH@Z PROC				; SetGLView
; File D:\dev\cpp\40_BIM\01_AlanBaylis\cpp\OGLMDI2_VS2022\Build01\general.cpp
; Line 96
$LN4:
	mov	DWORD PTR [rsp+16], edx
	mov	DWORD PTR [rsp+8], ecx
	push	rdi
	sub	rsp, 32					; 00000020H
; Line 97
	cmp	DWORD PTR Height$[rsp], 0
	jne	SHORT $LN2@SetGLView
; Line 98
	mov	DWORD PTR Height$[rsp], 1
$LN2@SetGLView:
; Line 100
	mov	r9d, DWORD PTR Height$[rsp]
	mov	r8d, DWORD PTR Width$[rsp]
	xor	edx, edx
	xor	ecx, ecx
	call	QWORD PTR __imp_glViewport
; Line 101
	mov	ecx, 5889				; 00001701H
	call	QWORD PTR __imp_glMatrixMode
; Line 102
	call	QWORD PTR __imp_glLoadIdentity
; Line 103
	cvtsi2ss xmm0, DWORD PTR Width$[rsp]
	cvtsi2ss xmm1, DWORD PTR Height$[rsp]
	divss	xmm0, xmm1
	cvtss2sd xmm0, xmm0
	movsd	xmm3, QWORD PTR __real@4069000000000000
	movsd	xmm2, QWORD PTR __real@3fb999999999999a
	movaps	xmm1, xmm0
	movsd	xmm0, QWORD PTR __real@4046800000000000
	call	gluPerspective
; Line 104
	mov	ecx, 5888				; 00001700H
	call	QWORD PTR __imp_glMatrixMode
; Line 105
	call	QWORD PTR __imp_glLoadIdentity
; Line 106
	add	rsp, 32					; 00000020H
	pop	rdi
	ret	0
?SetGLView@@YAXHH@Z ENDP				; SetGLView
_TEXT	ENDS
; Function compile flags: /Odtp /RTCsu
_TEXT	SEGMENT
?SetGLProperties@@YAXXZ PROC				; SetGLProperties
; File D:\dev\cpp\40_BIM\01_AlanBaylis\cpp\OGLMDI2_VS2022\Build01\general.cpp
; Line 84
$LN3:
	push	rdi
	sub	rsp, 32					; 00000020H
; Line 85
	mov	ecx, 1029				; 00000405H
	call	QWORD PTR __imp_glCullFace
; Line 86
	xorps	xmm3, xmm3
	xorps	xmm2, xmm2
	xorps	xmm1, xmm1
	xorps	xmm0, xmm0
	call	QWORD PTR __imp_glClearColor
; Line 87
	movsd	xmm0, QWORD PTR __real@3ff0000000000000
	call	QWORD PTR __imp_glClearDepth
; Line 88
	mov	ecx, 513				; 00000201H
	call	QWORD PTR __imp_glDepthFunc
; Line 89
	mov	ecx, 2929				; 00000b71H
	call	QWORD PTR __imp_glEnable
; Line 90
	mov	ecx, 7425				; 00001d01H
	call	QWORD PTR __imp_glShadeModel
; Line 91
	mov	ecx, 2977				; 00000ba1H
	call	QWORD PTR __imp_glEnable
; Line 92
	mov	ecx, 2884				; 00000b44H
	call	QWORD PTR __imp_glEnable
; Line 93
	add	rsp, 32					; 00000020H
	pop	rdi
	ret	0
?SetGLProperties@@YAXXZ ENDP				; SetGLProperties
_TEXT	ENDS
; Function compile flags: /Odtp /RTCsu
_TEXT	SEGMENT
TGAheader$ = 88
TGAcompare$ = 136
header$ = 180
bytesPerPixel$ = 196
imageSize$ = 200
temp$ = 204
type$ = 208
file$ = 216
i$6 = 224
__$ArrayPad$ = 240
texture$ = 272
filename$ = 280
?LoadTGA@@YA_NPEAVTEXTURE@@PEAD@Z PROC			; LoadTGA
; File D:\dev\cpp\40_BIM\01_AlanBaylis\cpp\OGLMDI2_VS2022\Build01\general.cpp
; Line 4
$LN22:
	mov	QWORD PTR [rsp+16], rdx
	mov	QWORD PTR [rsp+8], rcx
	push	rdi
	sub	rsp, 256				; 00000100H
	lea	rdi, QWORD PTR [rsp+80]
	mov	ecx, 44					; 0000002cH
	mov	eax, -858993460				; ccccccccH
	rep stosd
	mov	rcx, QWORD PTR [rsp+272]
	mov	rax, QWORD PTR __security_cookie
	xor	rax, rsp
	mov	QWORD PTR __$ArrayPad$[rsp], rax
; Line 5
	mov	BYTE PTR TGAheader$[rsp], 0
	mov	BYTE PTR TGAheader$[rsp+1], 0
	mov	BYTE PTR TGAheader$[rsp+2], 2
	mov	BYTE PTR TGAheader$[rsp+3], 0
	mov	BYTE PTR TGAheader$[rsp+4], 0
	mov	BYTE PTR TGAheader$[rsp+5], 0
	mov	BYTE PTR TGAheader$[rsp+6], 0
	mov	BYTE PTR TGAheader$[rsp+7], 0
	mov	BYTE PTR TGAheader$[rsp+8], 0
	mov	BYTE PTR TGAheader$[rsp+9], 0
	mov	BYTE PTR TGAheader$[rsp+10], 0
	mov	BYTE PTR TGAheader$[rsp+11], 0
; Line 11
	mov	DWORD PTR type$[rsp], 6408		; 00001908H
; Line 12
	lea	rdx, OFFSET FLAT:$SG122626
	mov	rcx, QWORD PTR filename$[rsp]
	call	fopen
	mov	QWORD PTR file$[rsp], rax
; Line 15
	cmp	QWORD PTR file$[rsp], 0
	je	SHORT $LN6@LoadTGA
	mov	r9, QWORD PTR file$[rsp]
	mov	r8d, 12
	mov	edx, 1
	lea	rcx, QWORD PTR TGAcompare$[rsp]
	call	fread
	cmp	rax, 12
	jne	SHORT $LN6@LoadTGA
	mov	r8d, 12
	lea	rdx, QWORD PTR TGAcompare$[rsp]
	lea	rcx, QWORD PTR TGAheader$[rsp]
	call	memcmp
	test	eax, eax
	jne	SHORT $LN6@LoadTGA
	mov	r9, QWORD PTR file$[rsp]
	mov	r8d, 6
	mov	edx, 1
	lea	rcx, QWORD PTR header$[rsp]
	call	fread
	cmp	rax, 6
	je	$LN5@LoadTGA
$LN6@LoadTGA:
; Line 18
	cmp	QWORD PTR file$[rsp], 0
	jne	SHORT $LN7@LoadTGA
; Line 20
	mov	r9d, 16
	lea	r8, OFFSET FLAT:$SG122630
	lea	rdx, OFFSET FLAT:$SG122631
	xor	ecx, ecx
	call	QWORD PTR __imp_MessageBoxA
; Line 21
	xor	al, al
	jmp	$LN1@LoadTGA
$LN7@LoadTGA:
; Line 23
	mov	eax, 1
	imul	rax, rax, 2
	movzx	eax, BYTE PTR TGAcompare$[rsp+rax]
	cmp	eax, 1
	jne	SHORT $LN8@LoadTGA
; Line 24
	mov	r9d, 16
	lea	r8, OFFSET FLAT:$SG122633
	lea	rdx, OFFSET FLAT:$SG122634
	xor	ecx, ecx
	call	QWORD PTR __imp_MessageBoxA
$LN8@LoadTGA:
; Line 25
	mov	eax, 1
	imul	rax, rax, 2
	movzx	eax, BYTE PTR TGAcompare$[rsp+rax]
	cmp	eax, 3
	jne	SHORT $LN9@LoadTGA
; Line 26
	mov	r9d, 16
	lea	r8, OFFSET FLAT:$SG122636
	lea	rdx, OFFSET FLAT:$SG122637
	xor	ecx, ecx
	call	QWORD PTR __imp_MessageBoxA
$LN9@LoadTGA:
; Line 27
	mov	eax, 1
	imul	rax, rax, 2
	movzx	eax, BYTE PTR TGAcompare$[rsp+rax]
	cmp	eax, 9
	je	SHORT $LN11@LoadTGA
	mov	eax, 1
	imul	rax, rax, 2
	movzx	eax, BYTE PTR TGAcompare$[rsp+rax]
	cmp	eax, 10
	jne	SHORT $LN10@LoadTGA
$LN11@LoadTGA:
; Line 28
	mov	r9d, 16
	lea	r8, OFFSET FLAT:$SG122640
	lea	rdx, OFFSET FLAT:$SG122641
	xor	ecx, ecx
	call	QWORD PTR __imp_MessageBoxA
$LN10@LoadTGA:
; Line 29
	mov	rcx, QWORD PTR file$[rsp]
	call	fclose
; Line 30
	xor	al, al
	jmp	$LN1@LoadTGA
$LN5@LoadTGA:
; Line 32
	mov	eax, 1
	imul	rax, rax, 1
	movzx	eax, BYTE PTR header$[rsp+rax]
	imul	eax, eax, 256				; 00000100H
	mov	ecx, 1
	imul	rcx, rcx, 0
	movzx	ecx, BYTE PTR header$[rsp+rcx]
	add	eax, ecx
	mov	rcx, QWORD PTR texture$[rsp]
	mov	DWORD PTR [rcx+36], eax
; Line 33
	mov	eax, 1
	imul	rax, rax, 3
	movzx	eax, BYTE PTR header$[rsp+rax]
	imul	eax, eax, 256				; 00000100H
	mov	ecx, 1
	imul	rcx, rcx, 2
	movzx	ecx, BYTE PTR header$[rsp+rcx]
	add	eax, ecx
	mov	rcx, QWORD PTR texture$[rsp]
	mov	DWORD PTR [rcx+40], eax
; Line 35
	mov	rax, QWORD PTR texture$[rsp]
	cmp	DWORD PTR [rax+36], 0
	jbe	SHORT $LN13@LoadTGA
	mov	rax, QWORD PTR texture$[rsp]
	cmp	DWORD PTR [rax+40], 0
	jbe	SHORT $LN13@LoadTGA
	mov	eax, 1
	imul	rax, rax, 4
	movzx	eax, BYTE PTR header$[rsp+rax]
	cmp	eax, 24
	je	$LN12@LoadTGA
	mov	eax, 1
	imul	rax, rax, 4
	movzx	eax, BYTE PTR header$[rsp+rax]
	cmp	eax, 32					; 00000020H
	je	$LN12@LoadTGA
$LN13@LoadTGA:
; Line 38
	mov	rcx, QWORD PTR file$[rsp]
	call	fclose
; Line 39
	mov	rax, QWORD PTR texture$[rsp]
	cmp	DWORD PTR [rax+36], 0
	jbe	SHORT $LN15@LoadTGA
	mov	rax, QWORD PTR texture$[rsp]
	cmp	DWORD PTR [rax+40], 0
	ja	SHORT $LN14@LoadTGA
$LN15@LoadTGA:
; Line 40
	mov	r9d, 16
	lea	r8, OFFSET FLAT:$SG122646
	lea	rdx, OFFSET FLAT:$SG122647
	xor	ecx, ecx
	call	QWORD PTR __imp_MessageBoxA
$LN14@LoadTGA:
; Line 41
	mov	eax, 1
	imul	rax, rax, 4
	movzx	eax, BYTE PTR header$[rsp+rax]
	cmp	eax, 24
	je	SHORT $LN16@LoadTGA
	mov	eax, 1
	imul	rax, rax, 4
	movzx	eax, BYTE PTR header$[rsp+rax]
	cmp	eax, 32					; 00000020H
	je	SHORT $LN16@LoadTGA
; Line 42
	mov	r9d, 16
	lea	r8, OFFSET FLAT:$SG122649
	lea	rdx, OFFSET FLAT:$SG122650
	xor	ecx, ecx
	call	QWORD PTR __imp_MessageBoxA
$LN16@LoadTGA:
; Line 43
	xor	al, al
	jmp	$LN1@LoadTGA
$LN12@LoadTGA:
; Line 45
	mov	eax, 1
	imul	rax, rax, 4
	movzx	eax, BYTE PTR header$[rsp+rax]
	mov	rcx, QWORD PTR texture$[rsp]
	mov	DWORD PTR [rcx+32], eax
; Line 46
	xor	edx, edx
	mov	rax, QWORD PTR texture$[rsp]
	mov	eax, DWORD PTR [rax+32]
	mov	ecx, 8
	div	ecx
	mov	DWORD PTR bytesPerPixel$[rsp], eax
; Line 47
	mov	rax, QWORD PTR texture$[rsp]
	mov	rcx, QWORD PTR texture$[rsp]
	mov	eax, DWORD PTR [rax+36]
	imul	eax, DWORD PTR [rcx+40]
	imul	eax, DWORD PTR bytesPerPixel$[rsp]
	mov	DWORD PTR imageSize$[rsp], eax
; Line 48
	mov	eax, DWORD PTR imageSize$[rsp]
	mov	ecx, eax
	call	malloc
	mov	rcx, QWORD PTR texture$[rsp]
	mov	QWORD PTR [rcx+24], rax
; Line 49
	mov	rax, QWORD PTR texture$[rsp]
	cmp	QWORD PTR [rax+24], 0
	je	SHORT $LN18@LoadTGA
	mov	eax, DWORD PTR imageSize$[rsp]
	mov	r9, QWORD PTR file$[rsp]
	mov	r8d, eax
	mov	edx, 1
	mov	rax, QWORD PTR texture$[rsp]
	mov	rcx, QWORD PTR [rax+24]
	call	fread
	mov	ecx, DWORD PTR imageSize$[rsp]
	cmp	rax, rcx
	je	SHORT $LN17@LoadTGA
$LN18@LoadTGA:
; Line 52
	mov	rax, QWORD PTR texture$[rsp]
	cmp	QWORD PTR [rax+24], 0
	je	SHORT $LN19@LoadTGA
; Line 53
	mov	rax, QWORD PTR texture$[rsp]
	mov	rcx, QWORD PTR [rax+24]
	call	free
$LN19@LoadTGA:
; Line 54
	mov	r9d, 16
	lea	r8, OFFSET FLAT:$SG122654
	lea	rdx, OFFSET FLAT:$SG122655
	xor	ecx, ecx
	call	QWORD PTR __imp_MessageBoxA
; Line 55
	mov	rcx, QWORD PTR file$[rsp]
	call	fclose
; Line 56
	xor	al, al
	jmp	$LN1@LoadTGA
$LN17@LoadTGA:
; Line 58
	mov	DWORD PTR i$6[rsp], 0
	jmp	SHORT $LN4@LoadTGA
$LN2@LoadTGA:
	mov	eax, DWORD PTR bytesPerPixel$[rsp]
	mov	ecx, DWORD PTR i$6[rsp]
	add	ecx, eax
	mov	eax, ecx
	mov	DWORD PTR i$6[rsp], eax
$LN4@LoadTGA:
	mov	eax, DWORD PTR imageSize$[rsp]
	cmp	DWORD PTR i$6[rsp], eax
	jae	SHORT $LN3@LoadTGA
; Line 60
	mov	eax, DWORD PTR i$6[rsp]
	mov	rcx, QWORD PTR texture$[rsp]
	mov	rcx, QWORD PTR [rcx+24]
	movzx	eax, BYTE PTR [rcx+rax]
	mov	DWORD PTR temp$[rsp], eax
; Line 61
	mov	eax, DWORD PTR i$6[rsp]
	add	eax, 2
	mov	eax, eax
	mov	rcx, QWORD PTR texture$[rsp]
	mov	rcx, QWORD PTR [rcx+24]
	mov	edx, DWORD PTR i$6[rsp]
	mov	r8, QWORD PTR texture$[rsp]
	mov	r8, QWORD PTR [r8+24]
	movzx	eax, BYTE PTR [rcx+rax]
	mov	BYTE PTR [r8+rdx], al
; Line 62
	mov	eax, DWORD PTR i$6[rsp]
	add	eax, 2
	mov	eax, eax
	mov	rcx, QWORD PTR texture$[rsp]
	mov	rcx, QWORD PTR [rcx+24]
	movzx	edx, BYTE PTR temp$[rsp]
	mov	BYTE PTR [rcx+rax], dl
; Line 63
	jmp	$LN2@LoadTGA
$LN3@LoadTGA:
; Line 64
	mov	rcx, QWORD PTR file$[rsp]
	call	fclose
; Line 67
	mov	eax, 72					; 00000048H
	imul	rax, rax, 0
	mov	rcx, QWORD PTR texture$[rsp]
	lea	rax, QWORD PTR [rcx+rax+44]
	mov	rdx, rax
	mov	ecx, 1
	call	QWORD PTR __imp_glGenTextures
; Line 68
	mov	eax, 72					; 00000048H
	imul	rax, rax, 0
	mov	rcx, QWORD PTR texture$[rsp]
	mov	edx, DWORD PTR [rcx+rax+44]
	mov	ecx, 3553				; 00000de1H
	call	QWORD PTR __imp_glBindTexture
; Line 69
	movss	xmm2, DWORD PTR __real@46180400
	mov	edx, 10240				; 00002800H
	mov	ecx, 3553				; 00000de1H
	call	QWORD PTR __imp_glTexParameterf
; Line 70
	movss	xmm2, DWORD PTR __real@461c0c00
	mov	edx, 10241				; 00002801H
	mov	ecx, 3553				; 00000de1H
	call	QWORD PTR __imp_glTexParameterf
; Line 71
	mov	eax, 72					; 00000048H
	imul	rax, rax, 0
	mov	rcx, QWORD PTR texture$[rsp]
	cmp	DWORD PTR [rcx+rax+32], 24
	jne	SHORT $LN20@LoadTGA
; Line 73
	mov	DWORD PTR type$[rsp], 6407		; 00001907H
$LN20@LoadTGA:
; Line 75
	movss	xmm2, DWORD PTR __real@46040000
	mov	edx, 8704				; 00002200H
	mov	ecx, 8960				; 00002300H
	call	QWORD PTR __imp_glTexEnvf
; Line 76
	mov	eax, 72					; 00000048H
	imul	rax, rax, 0
	mov	ecx, 72					; 00000048H
	imul	rcx, rcx, 0
	mov	edx, 72					; 00000048H
	imul	rdx, rdx, 0
	mov	r8, QWORD PTR texture$[rsp]
	mov	rax, QWORD PTR [r8+rax+24]
	mov	QWORD PTR [rsp+64], rax
	mov	DWORD PTR [rsp+56], 5121		; 00001401H
	mov	eax, DWORD PTR type$[rsp]
	mov	DWORD PTR [rsp+48], eax
	mov	DWORD PTR [rsp+40], 0
	mov	rax, QWORD PTR texture$[rsp]
	mov	eax, DWORD PTR [rax+rcx+40]
	mov	DWORD PTR [rsp+32], eax
	mov	rax, QWORD PTR texture$[rsp]
	mov	r9d, DWORD PTR [rax+rdx+36]
	mov	r8d, DWORD PTR type$[rsp]
	xor	edx, edx
	mov	ecx, 3553				; 00000de1H
	call	QWORD PTR __imp_glTexImage2D
; Line 77
	mov	eax, 72					; 00000048H
	imul	rax, rax, 0
	mov	ecx, 72					; 00000048H
	imul	rcx, rcx, 0
	mov	edx, 72					; 00000048H
	imul	rdx, rdx, 0
	mov	r8, QWORD PTR texture$[rsp]
	mov	rax, QWORD PTR [r8+rax+24]
	mov	QWORD PTR [rsp+48], rax
	mov	DWORD PTR [rsp+40], 5121		; 00001401H
	mov	eax, DWORD PTR type$[rsp]
	mov	DWORD PTR [rsp+32], eax
	mov	rax, QWORD PTR texture$[rsp]
	mov	r9d, DWORD PTR [rax+rcx+40]
	mov	rax, QWORD PTR texture$[rsp]
	mov	r8d, DWORD PTR [rax+rdx+36]
	mov	edx, DWORD PTR type$[rsp]
	mov	ecx, 3553				; 00000de1H
	call	gluBuild2DMipmaps
; Line 78
	mov	rax, QWORD PTR texture$[rsp]
	mov	rcx, QWORD PTR [rax+24]
	call	free
; Line 79
	mov	al, 1
$LN1@LoadTGA:
; Line 80
	mov	rdi, rax
	mov	rcx, rsp
	lea	rdx, OFFSET FLAT:?LoadTGA@@YA_NPEAVTEXTURE@@PEAD@Z$rtcFrameData
	call	_RTC_CheckStackVars
	mov	rax, rdi
	mov	rcx, QWORD PTR __$ArrayPad$[rsp]
	xor	rcx, rsp
	call	__security_check_cookie
	add	rsp, 256				; 00000100H
	pop	rdi
	ret	0
?LoadTGA@@YA_NPEAVTEXTURE@@PEAD@Z ENDP			; LoadTGA
_TEXT	ENDS
; Function compile flags: /Odtp /RTCsu
;	COMDAT ?__empty_global_delete@@YAXPEAX_K@Z
_TEXT	SEGMENT
__formal$ = 16
__formal$ = 24
?__empty_global_delete@@YAXPEAX_K@Z PROC		; __empty_global_delete, COMDAT
; File D:\dev\cpp\40_BIM\01_AlanBaylis\cpp\OGLMDI2_VS2022\Build01\general.cpp
; Line 123
$LN3:
	mov	QWORD PTR [rsp+16], rdx
	mov	QWORD PTR [rsp+8], rcx
	push	rdi
	pop	rdi
	ret	0
?__empty_global_delete@@YAXPEAX_K@Z ENDP		; __empty_global_delete
_TEXT	ENDS
; Function compile flags: /Odtp /RTCsu
;	COMDAT ?__empty_global_delete@@YAXPEAX@Z
_TEXT	SEGMENT
__formal$ = 16
?__empty_global_delete@@YAXPEAX@Z PROC			; __empty_global_delete, COMDAT
; File D:\dev\cpp\40_BIM\01_AlanBaylis\cpp\OGLMDI2_VS2022\Build01\general.cpp
; Line 123
$LN3:
	mov	QWORD PTR [rsp+8], rcx
	push	rdi
	pop	rdi
	ret	0
?__empty_global_delete@@YAXPEAX@Z ENDP			; __empty_global_delete
_TEXT	ENDS
END
