; Listing generated by Microsoft (R) Optimizing Compiler Version 19.38.33133.0 

include listing.inc

INCLUDELIB LIBCMTD
INCLUDELIB OLDNAMES

PUBLIC	?glFont@@3PEAUGLFONT@@EA			; glFont
_BSS	SEGMENT
?glFont@@3PEAUGLFONT@@EA DQ 01H DUP (?)			; glFont
_BSS	ENDS
CONST	SEGMENT
$SG124645 DB	'invalid argument', 00H
	ORG $+3
$SG124646 DB	'%s', 00H
	ORG $+9
$SG124647 DB	'C:\Program Files\Microsoft Visual Studio\2022\Community\'
	DB	'VC\Tools\MSVC\14.38.33130\include\xmemory', 00H
	ORG $+14
$SG124648 DB	'C', 00H, ':', 00H, '\', 00H, 'P', 00H, 'r', 00H, 'o', 00H
	DB	'g', 00H, 'r', 00H, 'a', 00H, 'm', 00H, ' ', 00H, 'F', 00H, 'i'
	DB	00H, 'l', 00H, 'e', 00H, 's', 00H, '\', 00H, 'M', 00H, 'i', 00H
	DB	'c', 00H, 'r', 00H, 'o', 00H, 's', 00H, 'o', 00H, 'f', 00H, 't'
	DB	00H, ' ', 00H, 'V', 00H, 'i', 00H, 's', 00H, 'u', 00H, 'a', 00H
	DB	'l', 00H, ' ', 00H, 'S', 00H, 't', 00H, 'u', 00H, 'd', 00H, 'i'
	DB	00H, 'o', 00H, '\', 00H, '2', 00H, '0', 00H, '2', 00H, '2', 00H
	DB	'\', 00H, 'C', 00H, 'o', 00H, 'm', 00H, 'm', 00H, 'u', 00H, 'n'
	DB	00H, 'i', 00H, 't', 00H, 'y', 00H, '\', 00H, 'V', 00H, 'C', 00H
	DB	'\', 00H, 'T', 00H, 'o', 00H, 'o', 00H, 'l', 00H, 's', 00H, '\'
	DB	00H, 'M', 00H, 'S', 00H, 'V', 00H, 'C', 00H, '\', 00H, '1', 00H
	DB	'4', 00H, '.', 00H, '3', 00H, '8', 00H, '.', 00H, '3', 00H, '3'
	DB	00H, '1', 00H, '3', 00H, '0', 00H, '\', 00H, 'i', 00H, 'n', 00H
	DB	'c', 00H, 'l', 00H, 'u', 00H, 'd', 00H, 'e', 00H, '\', 00H, 'x'
	DB	00H, 'm', 00H, 'e', 00H, 'm', 00H, 'o', 00H, 'r', 00H, 'y', 00H
	DB	00H, 00H
$SG124649 DB	00H, 00H
	ORG $+2
$SG124650 DB	'"', 00H, 'i', 00H, 'n', 00H, 'v', 00H, 'a', 00H, 'l', 00H
	DB	'i', 00H, 'd', 00H, ' ', 00H, 'a', 00H, 'r', 00H, 'g', 00H, 'u'
	DB	00H, 'm', 00H, 'e', 00H, 'n', 00H, 't', 00H, '"', 00H, 00H, 00H
	ORG $+2
$SG122381 DB	'rb', 00H
CONST	ENDS
PUBLIC	?__empty_global_delete@@YAXPEAX@Z		; __empty_global_delete
PUBLIC	?__empty_global_delete@@YAXPEAX_K@Z		; __empty_global_delete
PUBLIC	?glFontCreate@@YAHPEAUGLFONT@@PEADH@Z		; glFontCreate
PUBLIC	?glFontDestroy@@YAXPEAUGLFONT@@@Z		; glFontDestroy
PUBLIC	?glFontBegin@@YAXPEAUGLFONT@@@Z			; glFontBegin
PUBLIC	?glFontEnd@@YAXXZ				; glFontEnd
PUBLIC	?glFontTextOut@@YAXPEADMMM@Z			; glFontTextOut
PUBLIC	__real@46040000
PUBLIC	__real@46180400
PUBLIC	__real@46240000
EXTRN	strlen:PROC
EXTRN	free:PROC
EXTRN	malloc:PROC
EXTRN	fclose:PROC
EXTRN	fopen:PROC
EXTRN	fread:PROC
EXTRN	__imp_glBegin:PROC
EXTRN	__imp_glBindTexture:PROC
EXTRN	__imp_glEnd:PROC
EXTRN	__imp_glTexCoord2f:PROC
EXTRN	__imp_glTexEnvf:PROC
EXTRN	__imp_glTexImage2D:PROC
EXTRN	__imp_glTexParameterf:PROC
EXTRN	__imp_glVertex3f:PROC
EXTRN	_RTC_InitBase:PROC
EXTRN	_RTC_Shutdown:PROC
EXTRN	_fltused:DWORD
;	COMDAT pdata
pdata	SEGMENT
$pdata$?__empty_global_delete@@YAXPEAX@Z DD imagerel $LN3
	DD	imagerel $LN3+8
	DD	imagerel $unwind$?__empty_global_delete@@YAXPEAX@Z
pdata	ENDS
;	COMDAT pdata
pdata	SEGMENT
$pdata$?__empty_global_delete@@YAXPEAX_K@Z DD imagerel $LN3
	DD	imagerel $LN3+13
	DD	imagerel $unwind$?__empty_global_delete@@YAXPEAX_K@Z
pdata	ENDS
pdata	SEGMENT
$pdata$?glFontCreate@@YAHPEAUGLFONT@@PEADH@Z DD imagerel $LN6
	DD	imagerel $LN6+567
	DD	imagerel $unwind$?glFontCreate@@YAHPEAUGLFONT@@PEADH@Z
$pdata$?glFontDestroy@@YAXPEAUGLFONT@@@Z DD imagerel $LN3
	DD	imagerel $LN3+30
	DD	imagerel $unwind$?glFontDestroy@@YAXPEAUGLFONT@@@Z
$pdata$?glFontBegin@@YAXPEAUGLFONT@@@Z DD imagerel $LN5
	DD	imagerel $LN5+71
	DD	imagerel $unwind$?glFontBegin@@YAXPEAUGLFONT@@@Z
$pdata$?glFontEnd@@YAXXZ DD imagerel $LN3
	DD	imagerel $LN3+15
	DD	imagerel $unwind$?glFontEnd@@YAXXZ
$pdata$?glFontTextOut@@YAXPEADMMM@Z DD imagerel $LN7
	DD	imagerel $LN7+442
	DD	imagerel $unwind$?glFontTextOut@@YAXPEADMMM@Z
pdata	ENDS
;	COMDAT __real@46240000
CONST	SEGMENT
__real@46240000 DD 046240000r			; 10496
CONST	ENDS
;	COMDAT __real@46180400
CONST	SEGMENT
__real@46180400 DD 046180400r			; 9729
CONST	ENDS
;	COMDAT __real@46040000
CONST	SEGMENT
__real@46040000 DD 046040000r			; 8448
CONST	ENDS
;	COMDAT rtc$TMZ
rtc$TMZ	SEGMENT
_RTC_Shutdown.rtc$TMZ DQ FLAT:_RTC_Shutdown
rtc$TMZ	ENDS
;	COMDAT rtc$IMZ
rtc$IMZ	SEGMENT
_RTC_InitBase.rtc$IMZ DQ FLAT:_RTC_InitBase
rtc$IMZ	ENDS
xdata	SEGMENT
$unwind$?glFontCreate@@YAHPEAUGLFONT@@PEADH@Z DD 021401H
	DD	07010d214H
$unwind$?glFontDestroy@@YAXPEAUGLFONT@@@Z DD 020a01H
	DD	07006320aH
$unwind$?glFontBegin@@YAXPEAUGLFONT@@@Z DD 020a01H
	DD	07006320aH
$unwind$?glFontEnd@@YAXXZ DD 010201H
	DD	07002H
$unwind$?glFontTextOut@@YAXPEADMMM@Z DD 021c01H
	DD	07018721cH
xdata	ENDS
;	COMDAT xdata
xdata	SEGMENT
$unwind$?__empty_global_delete@@YAXPEAX_K@Z DD 010b01H
	DD	0700bH
xdata	ENDS
;	COMDAT xdata
xdata	SEGMENT
$unwind$?__empty_global_delete@@YAXPEAX@Z DD 010601H
	DD	07006H
xdata	ENDS
; Function compile flags: /Odtp /RTCsu
_TEXT	SEGMENT
Length$ = 32
i$ = 36
Char$ = 40
tv138 = 48
String$ = 80
x$ = 88
y$ = 96
z$ = 104
?glFontTextOut@@YAXPEADMMM@Z PROC			; glFontTextOut
; File D:\dev\cpp\40_BIM\01_AlanBaylis\cpp\OGLMDI2_VS2022\Build01\glFont.cpp
; Line 115
$LN7:
	movss	DWORD PTR [rsp+32], xmm3
	movss	DWORD PTR [rsp+24], xmm2
	movss	DWORD PTR [rsp+16], xmm1
	mov	QWORD PTR [rsp+8], rcx
	push	rdi
	sub	rsp, 64					; 00000040H
; Line 120
	cmp	QWORD PTR ?glFont@@3PEAUGLFONT@@EA, 0	; glFont
	jne	SHORT $LN5@glFontText
; Line 121
	jmp	$LN1@glFontText
$LN5@glFontText:
; Line 124
	mov	rcx, QWORD PTR String$[rsp]
	call	strlen
	mov	DWORD PTR Length$[rsp], eax
; Line 127
	mov	ecx, 7
	call	QWORD PTR __imp_glBegin
; Line 130
	mov	DWORD PTR i$[rsp], 0
	jmp	SHORT $LN4@glFontText
$LN2@glFontText:
	mov	eax, DWORD PTR i$[rsp]
	inc	eax
	mov	DWORD PTR i$[rsp], eax
$LN4@glFontText:
	mov	eax, DWORD PTR Length$[rsp]
	cmp	DWORD PTR i$[rsp], eax
	jge	$LN3@glFontText
; Line 133
	movsxd	rax, DWORD PTR i$[rsp]
	mov	rcx, QWORD PTR String$[rsp]
	movsx	eax, BYTE PTR [rcx+rax]
	mov	rcx, QWORD PTR ?glFont@@3PEAUGLFONT@@EA	; glFont
	sub	eax, DWORD PTR [rcx+12]
	cdqe
	imul	rax, rax, 24
	mov	rcx, QWORD PTR ?glFont@@3PEAUGLFONT@@EA	; glFont
	add	rax, QWORD PTR [rcx+24]
	mov	QWORD PTR Char$[rsp], rax
; Line 137
	mov	rax, QWORD PTR Char$[rsp]
	movss	xmm1, DWORD PTR [rax+12]
	mov	rax, QWORD PTR Char$[rsp]
	movss	xmm0, DWORD PTR [rax+8]
	call	QWORD PTR __imp_glTexCoord2f
; Line 138
	movss	xmm2, DWORD PTR z$[rsp]
	movss	xmm1, DWORD PTR y$[rsp]
	movss	xmm0, DWORD PTR x$[rsp]
	call	QWORD PTR __imp_glVertex3f
; Line 139
	mov	rax, QWORD PTR Char$[rsp]
	movss	xmm1, DWORD PTR [rax+20]
	mov	rax, QWORD PTR Char$[rsp]
	movss	xmm0, DWORD PTR [rax+8]
	call	QWORD PTR __imp_glTexCoord2f
; Line 140
	mov	rax, QWORD PTR Char$[rsp]
	movss	xmm0, DWORD PTR y$[rsp]
	subss	xmm0, DWORD PTR [rax+4]
	movss	xmm2, DWORD PTR z$[rsp]
	movaps	xmm1, xmm0
	movss	xmm0, DWORD PTR x$[rsp]
	call	QWORD PTR __imp_glVertex3f
; Line 141
	mov	rax, QWORD PTR Char$[rsp]
	movss	xmm1, DWORD PTR [rax+20]
	mov	rax, QWORD PTR Char$[rsp]
	movss	xmm0, DWORD PTR [rax+16]
	call	QWORD PTR __imp_glTexCoord2f
; Line 142
	mov	rax, QWORD PTR Char$[rsp]
	movss	xmm0, DWORD PTR y$[rsp]
	subss	xmm0, DWORD PTR [rax+4]
	mov	rax, QWORD PTR Char$[rsp]
	movss	xmm1, DWORD PTR x$[rsp]
	addss	xmm1, DWORD PTR [rax]
	movss	DWORD PTR tv138[rsp], xmm1
	movss	xmm2, DWORD PTR z$[rsp]
	movaps	xmm1, xmm0
	movss	xmm0, DWORD PTR tv138[rsp]
	call	QWORD PTR __imp_glVertex3f
; Line 143
	mov	rax, QWORD PTR Char$[rsp]
	movss	xmm1, DWORD PTR [rax+12]
	mov	rax, QWORD PTR Char$[rsp]
	movss	xmm0, DWORD PTR [rax+16]
	call	QWORD PTR __imp_glTexCoord2f
; Line 144
	mov	rax, QWORD PTR Char$[rsp]
	movss	xmm0, DWORD PTR x$[rsp]
	addss	xmm0, DWORD PTR [rax]
	movss	xmm2, DWORD PTR z$[rsp]
	movss	xmm1, DWORD PTR y$[rsp]
	call	QWORD PTR __imp_glVertex3f
; Line 147
	mov	rax, QWORD PTR Char$[rsp]
	movss	xmm0, DWORD PTR x$[rsp]
	addss	xmm0, DWORD PTR [rax]
	movss	DWORD PTR x$[rsp], xmm0
; Line 148
	jmp	$LN2@glFontText
$LN3@glFontText:
; Line 151
	call	QWORD PTR __imp_glEnd
$LN1@glFontText:
; Line 152
	add	rsp, 64					; 00000040H
	pop	rdi
	ret	0
?glFontTextOut@@YAXPEADMMM@Z ENDP			; glFontTextOut
_TEXT	ENDS
; Function compile flags: /Odtp /RTCsu
_TEXT	SEGMENT
?glFontEnd@@YAXXZ PROC					; glFontEnd
; File D:\dev\cpp\40_BIM\01_AlanBaylis\cpp\OGLMDI2_VS2022\Build01\glFont.cpp
; Line 108
$LN3:
	push	rdi
; Line 110
	mov	QWORD PTR ?glFont@@3PEAUGLFONT@@EA, 0	; glFont
; Line 111
	pop	rdi
	ret	0
?glFontEnd@@YAXXZ ENDP					; glFontEnd
_TEXT	ENDS
; Function compile flags: /Odtp /RTCsu
_TEXT	SEGMENT
Font$ = 48
?glFontBegin@@YAXPEAUGLFONT@@@Z PROC			; glFontBegin
; File D:\dev\cpp\40_BIM\01_AlanBaylis\cpp\OGLMDI2_VS2022\Build01\glFont.cpp
; Line 96
$LN5:
	mov	QWORD PTR [rsp+8], rcx
	push	rdi
	sub	rsp, 32					; 00000020H
; Line 98
	mov	rax, QWORD PTR Font$[rsp]
	cmp	QWORD PTR [rax+24], 0
	je	SHORT $LN2@glFontBegi
; Line 99
	mov	rax, QWORD PTR Font$[rsp]
	mov	QWORD PTR ?glFont@@3PEAUGLFONT@@EA, rax	; glFont
	jmp	SHORT $LN3@glFontBegi
$LN2@glFontBegi:
; Line 101
	mov	QWORD PTR ?glFont@@3PEAUGLFONT@@EA, 0	; glFont
$LN3@glFontBegi:
; Line 104
	mov	rax, QWORD PTR Font$[rsp]
	mov	edx, DWORD PTR [rax]
	mov	ecx, 3553				; 00000de1H
	call	QWORD PTR __imp_glBindTexture
; Line 105
	add	rsp, 32					; 00000020H
	pop	rdi
	ret	0
?glFontBegin@@YAXPEAUGLFONT@@@Z ENDP			; glFontBegin
_TEXT	ENDS
; Function compile flags: /Odtp /RTCsu
_TEXT	SEGMENT
Font$ = 48
?glFontDestroy@@YAXPEAUGLFONT@@@Z PROC			; glFontDestroy
; File D:\dev\cpp\40_BIM\01_AlanBaylis\cpp\OGLMDI2_VS2022\Build01\glFont.cpp
; Line 90
$LN3:
	mov	QWORD PTR [rsp+8], rcx
	push	rdi
	sub	rsp, 32					; 00000020H
; Line 92
	mov	rax, QWORD PTR Font$[rsp]
	mov	rcx, QWORD PTR [rax+24]
	call	free
; Line 93
	add	rsp, 32					; 00000020H
	pop	rdi
	ret	0
?glFontDestroy@@YAXPEAUGLFONT@@@Z ENDP			; glFontDestroy
_TEXT	ENDS
; Function compile flags: /Odtp /RTCsu
_TEXT	SEGMENT
Input$ = 80
TexBytes$ = 88
Num$ = 96
tv78 = 104
Font$ = 128
FileName$ = 136
Tex$ = 144
?glFontCreate@@YAHPEAUGLFONT@@PEADH@Z PROC		; glFontCreate
; File D:\dev\cpp\40_BIM\01_AlanBaylis\cpp\OGLMDI2_VS2022\Build01\glFont.cpp
; Line 27
$LN6:
	mov	DWORD PTR [rsp+24], r8d
	mov	QWORD PTR [rsp+16], rdx
	mov	QWORD PTR [rsp+8], rcx
	push	rdi
	sub	rsp, 112				; 00000070H
; Line 33
	lea	rdx, OFFSET FLAT:$SG122381
	mov	rcx, QWORD PTR FileName$[rsp]
	call	fopen
	mov	QWORD PTR Input$[rsp], rax
	cmp	QWORD PTR Input$[rsp], 0
	jne	SHORT $LN2@glFontCrea
; Line 34
	xor	eax, eax
	jmp	$LN1@glFontCrea
$LN2@glFontCrea:
; Line 37
	mov	r9, QWORD PTR Input$[rsp]
	mov	r8d, 1
	mov	edx, 32					; 00000020H
	mov	rcx, QWORD PTR Font$[rsp]
	call	fread
; Line 40
	mov	rax, QWORD PTR Font$[rsp]
	mov	ecx, DWORD PTR Tex$[rsp]
	mov	DWORD PTR [rax], ecx
; Line 43
	mov	rax, QWORD PTR Font$[rsp]
	mov	rcx, QWORD PTR Font$[rsp]
	mov	ecx, DWORD PTR [rcx+12]
	mov	eax, DWORD PTR [rax+16]
	sub	eax, ecx
	inc	eax
	mov	DWORD PTR Num$[rsp], eax
; Line 47
	movsxd	rax, DWORD PTR Num$[rsp]
	imul	rax, rax, 24
	mov	rcx, rax
	call	malloc
	mov	QWORD PTR tv78[rsp], rax
	mov	rax, QWORD PTR Font$[rsp]
	mov	rcx, QWORD PTR tv78[rsp]
	mov	QWORD PTR [rax+24], rcx
	cmp	QWORD PTR tv78[rsp], 0
	jne	SHORT $LN3@glFontCrea
; Line 48
	xor	eax, eax
	jmp	$LN1@glFontCrea
$LN3@glFontCrea:
; Line 51
	movsxd	rax, DWORD PTR Num$[rsp]
	mov	r9, QWORD PTR Input$[rsp]
	mov	r8, rax
	mov	edx, 24
	mov	rax, QWORD PTR Font$[rsp]
	mov	rcx, QWORD PTR [rax+24]
	call	fread
; Line 54
	mov	rax, QWORD PTR Font$[rsp]
	mov	rcx, QWORD PTR Font$[rsp]
	mov	eax, DWORD PTR [rax+4]
	imul	eax, DWORD PTR [rcx+8]
	shl	eax, 1
	mov	DWORD PTR Num$[rsp], eax
; Line 57
	movsxd	rax, DWORD PTR Num$[rsp]
	mov	rcx, rax
	call	malloc
	mov	QWORD PTR TexBytes$[rsp], rax
	cmp	QWORD PTR TexBytes$[rsp], 0
	jne	SHORT $LN4@glFontCrea
; Line 58
	xor	eax, eax
	jmp	$LN1@glFontCrea
$LN4@glFontCrea:
; Line 61
	movsxd	rax, DWORD PTR Num$[rsp]
	mov	r9, QWORD PTR Input$[rsp]
	mov	r8, rax
	mov	edx, 1
	mov	rcx, QWORD PTR TexBytes$[rsp]
	call	fread
; Line 64
	mov	rax, QWORD PTR Font$[rsp]
	mov	edx, DWORD PTR [rax]
	mov	ecx, 3553				; 00000de1H
	call	QWORD PTR __imp_glBindTexture
; Line 65
	movss	xmm2, DWORD PTR __real@46240000
	mov	edx, 10242				; 00002802H
	mov	ecx, 3553				; 00000de1H
	call	QWORD PTR __imp_glTexParameterf
; Line 67
	movss	xmm2, DWORD PTR __real@46240000
	mov	edx, 10243				; 00002803H
	mov	ecx, 3553				; 00000de1H
	call	QWORD PTR __imp_glTexParameterf
; Line 69
	movss	xmm2, DWORD PTR __real@46180400
	mov	edx, 10240				; 00002800H
	mov	ecx, 3553				; 00000de1H
	call	QWORD PTR __imp_glTexParameterf
; Line 71
	movss	xmm2, DWORD PTR __real@46180400
	mov	edx, 10241				; 00002801H
	mov	ecx, 3553				; 00000de1H
	call	QWORD PTR __imp_glTexParameterf
; Line 73
	movss	xmm2, DWORD PTR __real@46040000
	mov	edx, 8704				; 00002200H
	mov	ecx, 8960				; 00002300H
	call	QWORD PTR __imp_glTexEnvf
; Line 77
	mov	rax, QWORD PTR TexBytes$[rsp]
	mov	QWORD PTR [rsp+64], rax
	mov	DWORD PTR [rsp+56], 5121		; 00001401H
	mov	DWORD PTR [rsp+48], 6410		; 0000190aH
	mov	DWORD PTR [rsp+40], 0
	mov	rax, QWORD PTR Font$[rsp]
	mov	eax, DWORD PTR [rax+8]
	mov	DWORD PTR [rsp+32], eax
	mov	rax, QWORD PTR Font$[rsp]
	mov	r9d, DWORD PTR [rax+4]
	mov	r8d, 2
	xor	edx, edx
	mov	ecx, 3553				; 00000de1H
	call	QWORD PTR __imp_glTexImage2D
; Line 82
	mov	rcx, QWORD PTR TexBytes$[rsp]
	call	free
; Line 83
	mov	rcx, QWORD PTR Input$[rsp]
	call	fclose
; Line 86
	mov	eax, 1
$LN1@glFontCrea:
; Line 87
	add	rsp, 112				; 00000070H
	pop	rdi
	ret	0
?glFontCreate@@YAHPEAUGLFONT@@PEADH@Z ENDP		; glFontCreate
_TEXT	ENDS
; Function compile flags: /Odtp /RTCsu
;	COMDAT ?__empty_global_delete@@YAXPEAX_K@Z
_TEXT	SEGMENT
__formal$ = 16
__formal$ = 24
?__empty_global_delete@@YAXPEAX_K@Z PROC		; __empty_global_delete, COMDAT
; File D:\dev\cpp\40_BIM\01_AlanBaylis\cpp\OGLMDI2_VS2022\Build01\glFont.cpp
; Line 159
$LN3:
	mov	QWORD PTR [rsp+16], rdx
	mov	QWORD PTR [rsp+8], rcx
	push	rdi
	pop	rdi
	ret	0
?__empty_global_delete@@YAXPEAX_K@Z ENDP		; __empty_global_delete
_TEXT	ENDS
; Function compile flags: /Odtp /RTCsu
;	COMDAT ?__empty_global_delete@@YAXPEAX@Z
_TEXT	SEGMENT
__formal$ = 16
?__empty_global_delete@@YAXPEAX@Z PROC			; __empty_global_delete, COMDAT
; File D:\dev\cpp\40_BIM\01_AlanBaylis\cpp\OGLMDI2_VS2022\Build01\glFont.cpp
; Line 159
$LN3:
	mov	QWORD PTR [rsp+8], rcx
	push	rdi
	pop	rdi
	ret	0
?__empty_global_delete@@YAXPEAX@Z ENDP			; __empty_global_delete
_TEXT	ENDS
END
