; Listing generated by Microsoft (R) Optimizing Compiler Version 19.38.33133.0 

include listing.inc

INCLUDELIB LIBCMTD
INCLUDELIB OLDNAMES

CONST	SEGMENT
$SG124821 DB	'invalid argument', 00H
	ORG $+3
$SG124822 DB	'%s', 00H
	ORG $+9
$SG124823 DB	'C:\Program Files\Microsoft Visual Studio\2022\Community\'
	DB	'VC\Tools\MSVC\14.38.33130\include\xmemory', 00H
	ORG $+14
$SG124824 DB	'C', 00H, ':', 00H, '\', 00H, 'P', 00H, 'r', 00H, 'o', 00H
	DB	'g', 00H, 'r', 00H, 'a', 00H, 'm', 00H, ' ', 00H, 'F', 00H, 'i'
	DB	00H, 'l', 00H, 'e', 00H, 's', 00H, '\', 00H, 'M', 00H, 'i', 00H
	DB	'c', 00H, 'r', 00H, 'o', 00H, 's', 00H, 'o', 00H, 'f', 00H, 't'
	DB	00H, ' ', 00H, 'V', 00H, 'i', 00H, 's', 00H, 'u', 00H, 'a', 00H
	DB	'l', 00H, ' ', 00H, 'S', 00H, 't', 00H, 'u', 00H, 'd', 00H, 'i'
	DB	00H, 'o', 00H, '\', 00H, '2', 00H, '0', 00H, '2', 00H, '2', 00H
	DB	'\', 00H, 'C', 00H, 'o', 00H, 'm', 00H, 'm', 00H, 'u', 00H, 'n'
	DB	00H, 'i', 00H, 't', 00H, 'y', 00H, '\', 00H, 'V', 00H, 'C', 00H
	DB	'\', 00H, 'T', 00H, 'o', 00H, 'o', 00H, 'l', 00H, 's', 00H, '\'
	DB	00H, 'M', 00H, 'S', 00H, 'V', 00H, 'C', 00H, '\', 00H, '1', 00H
	DB	'4', 00H, '.', 00H, '3', 00H, '8', 00H, '.', 00H, '3', 00H, '3'
	DB	00H, '1', 00H, '3', 00H, '0', 00H, '\', 00H, 'i', 00H, 'n', 00H
	DB	'c', 00H, 'l', 00H, 'u', 00H, 'd', 00H, 'e', 00H, '\', 00H, 'x'
	DB	00H, 'm', 00H, 'e', 00H, 'm', 00H, 'o', 00H, 'r', 00H, 'y', 00H
	DB	00H, 00H
$SG124825 DB	00H, 00H
	ORG $+2
$SG124826 DB	'"', 00H, 'i', 00H, 'n', 00H, 'v', 00H, 'a', 00H, 'l', 00H
	DB	'i', 00H, 'd', 00H, ' ', 00H, 'a', 00H, 'r', 00H, 'g', 00H, 'u'
	DB	00H, 'm', 00H, 'e', 00H, 'n', 00H, 't', 00H, '"', 00H, 00H, 00H
CONST	ENDS
PUBLIC	?__empty_global_delete@@YAXPEAX@Z		; __empty_global_delete
PUBLIC	?__empty_global_delete@@YAXPEAX_K@Z		; __empty_global_delete
PUBLIC	??0OBJECT@@QEAA@XZ				; OBJECT::OBJECT
PUBLIC	??1OBJECT@@QEAA@XZ				; OBJECT::~OBJECT
PUBLIC	?Set@OBJECT@@QEAAXXZ				; OBJECT::Set
PUBLIC	?Rotate@OBJECT@@QEAAXXZ				; OBJECT::Rotate
PUBLIC	?Draw@OBJECT@@QEAAXXZ				; OBJECT::Draw
PUBLIC	?UpdatePosition@OBJECT@@QEAAXXZ			; OBJECT::UpdatePosition
PUBLIC	?UpdatePosition@OBJECT@@QEAAXMMM@Z		; OBJECT::UpdatePosition
PUBLIC	?MoveX@OBJECT@@QEAAXXZ				; OBJECT::MoveX
PUBLIC	?MoveY@OBJECT@@QEAAXXZ				; OBJECT::MoveY
PUBLIC	?MoveZ@OBJECT@@QEAAXXZ				; OBJECT::MoveZ
PUBLIC	?MoveX@OBJECT@@QEAAXM@Z				; OBJECT::MoveX
PUBLIC	?MoveY@OBJECT@@QEAAXM@Z				; OBJECT::MoveY
PUBLIC	?MoveZ@OBJECT@@QEAAXM@Z				; OBJECT::MoveZ
PUBLIC	?GetXUnit@OBJECT@@QEAA?AVVECTOR@@XZ		; OBJECT::GetXUnit
PUBLIC	?GetYUnit@OBJECT@@QEAA?AVVECTOR@@XZ		; OBJECT::GetYUnit
PUBLIC	?GetZUnit@OBJECT@@QEAA?AVVECTOR@@XZ		; OBJECT::GetZUnit
PUBLIC	__real@00000000
PUBLIC	__real@3f800000
PUBLIC	__real@3ff0000000000000
PUBLIC	__real@4000000000000000
PUBLIC	__real@4056800000000000
PUBLIC	__real@43340000
PUBLIC	__real@c056800000000000
EXTRN	??0VECTOR@@QEAA@MMM@Z:PROC			; VECTOR::VECTOR
EXTRN	??1VECTOR@@QEAA@XZ:PROC				; VECTOR::~VECTOR
EXTRN	?Set@VECTOR@@QEAAXXZ:PROC			; VECTOR::Set
EXTRN	??0QUAT@@QEAA@MMMM@Z:PROC			; QUAT::QUAT
EXTRN	??1QUAT@@QEAA@XZ:PROC				; QUAT::~QUAT
EXTRN	?Set@QUAT@@QEAAXXZ:PROC				; QUAT::Set
EXTRN	?EulerToQuat@QUAT@@QEAAXMMM@Z:PROC		; QUAT::EulerToQuat
EXTRN	?MultQuat@QUAT@@QEAAXV1@@Z:PROC			; QUAT::MultQuat
EXTRN	_RTC_CheckStackVars:PROC
EXTRN	_RTC_InitBase:PROC
EXTRN	_RTC_Shutdown:PROC
EXTRN	__CxxFrameHandler4:PROC
EXTRN	?pi@@3MA:DWORD					; pi
EXTRN	?radians@@3MA:DWORD				; radians
EXTRN	_fltused:DWORD
;	COMDAT pdata
pdata	SEGMENT
$pdata$?__empty_global_delete@@YAXPEAX@Z DD imagerel $LN3
	DD	imagerel $LN3+8
	DD	imagerel $unwind$?__empty_global_delete@@YAXPEAX@Z
pdata	ENDS
;	COMDAT pdata
pdata	SEGMENT
$pdata$?__empty_global_delete@@YAXPEAX_K@Z DD imagerel $LN3
	DD	imagerel $LN3+13
	DD	imagerel $unwind$?__empty_global_delete@@YAXPEAX_K@Z
pdata	ENDS
pdata	SEGMENT
$pdata$??0OBJECT@@QEAA@XZ DD imagerel $LN5
	DD	imagerel $LN5+85
	DD	imagerel $unwind$??0OBJECT@@QEAA@XZ
pdata	ENDS
pdata	SEGMENT
$pdata$?dtor$0@?0???0OBJECT@@QEAA@XZ@4HA DD imagerel ?dtor$0@?0???0OBJECT@@QEAA@XZ@4HA
	DD	imagerel ?dtor$0@?0???0OBJECT@@QEAA@XZ@4HA+35
	DD	imagerel $unwind$?dtor$0@?0???0OBJECT@@QEAA@XZ@4HA
pdata	ENDS
pdata	SEGMENT
$pdata$??1OBJECT@@QEAA@XZ DD imagerel $LN3
	DD	imagerel $LN3+46
	DD	imagerel $unwind$??1OBJECT@@QEAA@XZ
$pdata$?Set@OBJECT@@QEAAXXZ DD imagerel $LN3
	DD	imagerel $LN3+124
	DD	imagerel $unwind$?Set@OBJECT@@QEAAXXZ
$pdata$?Rotate@OBJECT@@QEAAXXZ DD imagerel $LN4
	DD	imagerel $LN4+286
	DD	imagerel $unwind$?Rotate@OBJECT@@QEAAXXZ
pdata	ENDS
pdata	SEGMENT
$pdata$?dtor$0@?0??Rotate@OBJECT@@QEAAXXZ@4HA DD imagerel ?dtor$0@?0??Rotate@OBJECT@@QEAAXXZ@4HA
	DD	imagerel ?dtor$0@?0??Rotate@OBJECT@@QEAAXXZ@4HA+35
	DD	imagerel $unwind$?dtor$0@?0??Rotate@OBJECT@@QEAAXXZ@4HA
pdata	ENDS
pdata	SEGMENT
$pdata$?Draw@OBJECT@@QEAAXXZ DD imagerel $LN3
	DD	imagerel $LN3+8
	DD	imagerel $unwind$?Draw@OBJECT@@QEAAXXZ
$pdata$?UpdatePosition@OBJECT@@QEAAXXZ DD imagerel $LN9
	DD	imagerel $LN9+148
	DD	imagerel $unwind$?UpdatePosition@OBJECT@@QEAAXXZ
$pdata$?UpdatePosition@OBJECT@@QEAAXMMM@Z DD imagerel $LN9
	DD	imagerel $LN9+133
	DD	imagerel $unwind$?UpdatePosition@OBJECT@@QEAAXMMM@Z
$pdata$?MoveX@OBJECT@@QEAAXXZ DD imagerel $LN5
	DD	imagerel $LN5+755
	DD	imagerel $unwind$?MoveX@OBJECT@@QEAAXXZ
pdata	ENDS
pdata	SEGMENT
$pdata$?dtor$0@?0??MoveX@OBJECT@@QEAAXXZ@4HA DD imagerel ?dtor$0@?0??MoveX@OBJECT@@QEAAXXZ@4HA
	DD	imagerel ?dtor$0@?0??MoveX@OBJECT@@QEAAXXZ@4HA+35
	DD	imagerel $unwind$?dtor$0@?0??MoveX@OBJECT@@QEAAXXZ@4HA
$pdata$?dtor$1@?0??MoveX@OBJECT@@QEAAXXZ@4HA DD imagerel ?dtor$1@?0??MoveX@OBJECT@@QEAAXXZ@4HA
	DD	imagerel ?dtor$1@?0??MoveX@OBJECT@@QEAAXXZ@4HA+38
	DD	imagerel $unwind$?dtor$1@?0??MoveX@OBJECT@@QEAAXXZ@4HA
pdata	ENDS
pdata	SEGMENT
$pdata$?MoveY@OBJECT@@QEAAXXZ DD imagerel $LN5
	DD	imagerel $LN5+755
	DD	imagerel $unwind$?MoveY@OBJECT@@QEAAXXZ
pdata	ENDS
pdata	SEGMENT
$pdata$?dtor$0@?0??MoveY@OBJECT@@QEAAXXZ@4HA DD imagerel ?dtor$0@?0??MoveY@OBJECT@@QEAAXXZ@4HA
	DD	imagerel ?dtor$0@?0??MoveY@OBJECT@@QEAAXXZ@4HA+35
	DD	imagerel $unwind$?dtor$0@?0??MoveY@OBJECT@@QEAAXXZ@4HA
$pdata$?dtor$1@?0??MoveY@OBJECT@@QEAAXXZ@4HA DD imagerel ?dtor$1@?0??MoveY@OBJECT@@QEAAXXZ@4HA
	DD	imagerel ?dtor$1@?0??MoveY@OBJECT@@QEAAXXZ@4HA+38
	DD	imagerel $unwind$?dtor$1@?0??MoveY@OBJECT@@QEAAXXZ@4HA
pdata	ENDS
pdata	SEGMENT
$pdata$?MoveZ@OBJECT@@QEAAXXZ DD imagerel $LN3
	DD	imagerel $LN3+422
	DD	imagerel $unwind$?MoveZ@OBJECT@@QEAAXXZ
$pdata$?MoveX@OBJECT@@QEAAXM@Z DD imagerel $LN5
	DD	imagerel $LN5+749
	DD	imagerel $unwind$?MoveX@OBJECT@@QEAAXM@Z
pdata	ENDS
pdata	SEGMENT
$pdata$?dtor$0@?0??MoveX@OBJECT@@QEAAXM@Z@4HA DD imagerel ?dtor$0@?0??MoveX@OBJECT@@QEAAXM@Z@4HA
	DD	imagerel ?dtor$0@?0??MoveX@OBJECT@@QEAAXM@Z@4HA+35
	DD	imagerel $unwind$?dtor$0@?0??MoveX@OBJECT@@QEAAXM@Z@4HA
$pdata$?dtor$1@?0??MoveX@OBJECT@@QEAAXM@Z@4HA DD imagerel ?dtor$1@?0??MoveX@OBJECT@@QEAAXM@Z@4HA
	DD	imagerel ?dtor$1@?0??MoveX@OBJECT@@QEAAXM@Z@4HA+38
	DD	imagerel $unwind$?dtor$1@?0??MoveX@OBJECT@@QEAAXM@Z@4HA
pdata	ENDS
pdata	SEGMENT
$pdata$?MoveY@OBJECT@@QEAAXM@Z DD imagerel $LN5
	DD	imagerel $LN5+749
	DD	imagerel $unwind$?MoveY@OBJECT@@QEAAXM@Z
pdata	ENDS
pdata	SEGMENT
$pdata$?dtor$0@?0??MoveY@OBJECT@@QEAAXM@Z@4HA DD imagerel ?dtor$0@?0??MoveY@OBJECT@@QEAAXM@Z@4HA
	DD	imagerel ?dtor$0@?0??MoveY@OBJECT@@QEAAXM@Z@4HA+35
	DD	imagerel $unwind$?dtor$0@?0??MoveY@OBJECT@@QEAAXM@Z@4HA
$pdata$?dtor$1@?0??MoveY@OBJECT@@QEAAXM@Z@4HA DD imagerel ?dtor$1@?0??MoveY@OBJECT@@QEAAXM@Z@4HA
	DD	imagerel ?dtor$1@?0??MoveY@OBJECT@@QEAAXM@Z@4HA+38
	DD	imagerel $unwind$?dtor$1@?0??MoveY@OBJECT@@QEAAXM@Z@4HA
pdata	ENDS
pdata	SEGMENT
$pdata$?MoveZ@OBJECT@@QEAAXM@Z DD imagerel $LN3
	DD	imagerel $LN3+416
	DD	imagerel $unwind$?MoveZ@OBJECT@@QEAAXM@Z
$pdata$?GetXUnit@OBJECT@@QEAA?AVVECTOR@@XZ DD imagerel $LN8
	DD	imagerel $LN8+786
	DD	imagerel $unwind$?GetXUnit@OBJECT@@QEAA?AVVECTOR@@XZ
pdata	ENDS
pdata	SEGMENT
$pdata$?dtor$0@?0??GetXUnit@OBJECT@@QEAA?AVVECTOR@@XZ@4HA DD imagerel ?dtor$0@?0??GetXUnit@OBJECT@@QEAA?AVVECTOR@@XZ@4HA
	DD	imagerel ?dtor$0@?0??GetXUnit@OBJECT@@QEAA?AVVECTOR@@XZ@4HA+35
	DD	imagerel $unwind$?dtor$0@?0??GetXUnit@OBJECT@@QEAA?AVVECTOR@@XZ@4HA
$pdata$?dtor$1@?0??GetXUnit@OBJECT@@QEAA?AVVECTOR@@XZ@4HA DD imagerel ?dtor$1@?0??GetXUnit@OBJECT@@QEAA?AVVECTOR@@XZ@4HA
	DD	imagerel ?dtor$1@?0??GetXUnit@OBJECT@@QEAA?AVVECTOR@@XZ@4HA+38
	DD	imagerel $unwind$?dtor$1@?0??GetXUnit@OBJECT@@QEAA?AVVECTOR@@XZ@4HA
pdata	ENDS
pdata	SEGMENT
$pdata$?GetYUnit@OBJECT@@QEAA?AVVECTOR@@XZ DD imagerel $LN8
	DD	imagerel $LN8+786
	DD	imagerel $unwind$?GetYUnit@OBJECT@@QEAA?AVVECTOR@@XZ
pdata	ENDS
pdata	SEGMENT
$pdata$?dtor$0@?0??GetYUnit@OBJECT@@QEAA?AVVECTOR@@XZ@4HA DD imagerel ?dtor$0@?0??GetYUnit@OBJECT@@QEAA?AVVECTOR@@XZ@4HA
	DD	imagerel ?dtor$0@?0??GetYUnit@OBJECT@@QEAA?AVVECTOR@@XZ@4HA+35
	DD	imagerel $unwind$?dtor$0@?0??GetYUnit@OBJECT@@QEAA?AVVECTOR@@XZ@4HA
$pdata$?dtor$1@?0??GetYUnit@OBJECT@@QEAA?AVVECTOR@@XZ@4HA DD imagerel ?dtor$1@?0??GetYUnit@OBJECT@@QEAA?AVVECTOR@@XZ@4HA
	DD	imagerel ?dtor$1@?0??GetYUnit@OBJECT@@QEAA?AVVECTOR@@XZ@4HA+38
	DD	imagerel $unwind$?dtor$1@?0??GetYUnit@OBJECT@@QEAA?AVVECTOR@@XZ@4HA
pdata	ENDS
pdata	SEGMENT
$pdata$?GetZUnit@OBJECT@@QEAA?AVVECTOR@@XZ DD imagerel $LN6
	DD	imagerel $LN6+508
	DD	imagerel $unwind$?GetZUnit@OBJECT@@QEAA?AVVECTOR@@XZ
pdata	ENDS
;	COMDAT __real@c056800000000000
CONST	SEGMENT
__real@c056800000000000 DQ 0c056800000000000r	; -90
CONST	ENDS
;	COMDAT __real@43340000
CONST	SEGMENT
__real@43340000 DD 043340000r			; 180
CONST	ENDS
;	COMDAT __real@4056800000000000
CONST	SEGMENT
__real@4056800000000000 DQ 04056800000000000r	; 90
CONST	ENDS
;	COMDAT __real@4000000000000000
CONST	SEGMENT
__real@4000000000000000 DQ 04000000000000000r	; 2
CONST	ENDS
;	COMDAT __real@3ff0000000000000
CONST	SEGMENT
__real@3ff0000000000000 DQ 03ff0000000000000r	; 1
CONST	ENDS
;	COMDAT __real@3f800000
CONST	SEGMENT
__real@3f800000 DD 03f800000r			; 1
CONST	ENDS
;	COMDAT __real@00000000
CONST	SEGMENT
__real@00000000 DD 000000000r			; 0
CONST	ENDS
;	COMDAT rtc$TMZ
rtc$TMZ	SEGMENT
_RTC_Shutdown.rtc$TMZ DQ FLAT:_RTC_Shutdown
rtc$TMZ	ENDS
;	COMDAT rtc$IMZ
rtc$IMZ	SEGMENT
_RTC_InitBase.rtc$IMZ DQ FLAT:_RTC_InitBase
rtc$IMZ	ENDS
CONST	SEGMENT
	ORG $+2
?Rotate@OBJECT@@QEAAXXZ$rtcName$0 DB 074H		; OBJECT::Rotate
	DB	065H
	DB	06dH
	DB	070H
	DB	05fH
	DB	071H
	DB	075H
	DB	061H
	DB	074H
	DB	00H
	ORG $+6
?Rotate@OBJECT@@QEAAXXZ$rtcVarDesc DD 038H		; OBJECT::Rotate
	DD	010H
	DQ	FLAT:?Rotate@OBJECT@@QEAAXXZ$rtcName$0
	ORG $+48
?Rotate@OBJECT@@QEAAXXZ$rtcFrameData DD 01H		; OBJECT::Rotate
	DD	00H
	DQ	FLAT:?Rotate@OBJECT@@QEAAXXZ$rtcVarDesc
?MoveX@OBJECT@@QEAAXXZ$rtcName$0 DB 054H		; OBJECT::MoveX
	DB	065H
	DB	06dH
	DB	070H
	DB	051H
	DB	075H
	DB	061H
	DB	074H
	DB	00H
	ORG $+7
?MoveX@OBJECT@@QEAAXXZ$rtcName$1 DB 054H		; OBJECT::MoveX
	DB	065H
	DB	06dH
	DB	070H
	DB	051H
	DB	075H
	DB	061H
	DB	074H
	DB	032H
	DB	00H
	ORG $+6
?MoveX@OBJECT@@QEAAXXZ$rtcVarDesc DD 088H		; OBJECT::MoveX
	DD	010H
	DQ	FLAT:?MoveX@OBJECT@@QEAAXXZ$rtcName$1
	DD	058H
	DD	010H
	DQ	FLAT:?MoveX@OBJECT@@QEAAXXZ$rtcName$0
	ORG $+96
?MoveX@OBJECT@@QEAAXXZ$rtcFrameData DD 02H		; OBJECT::MoveX
	DD	00H
	DQ	FLAT:?MoveX@OBJECT@@QEAAXXZ$rtcVarDesc
?MoveY@OBJECT@@QEAAXXZ$rtcName$0 DB 054H		; OBJECT::MoveY
	DB	065H
	DB	06dH
	DB	070H
	DB	051H
	DB	075H
	DB	061H
	DB	074H
	DB	00H
	ORG $+7
?MoveY@OBJECT@@QEAAXXZ$rtcName$1 DB 054H		; OBJECT::MoveY
	DB	065H
	DB	06dH
	DB	070H
	DB	051H
	DB	075H
	DB	061H
	DB	074H
	DB	032H
	DB	00H
	ORG $+6
?MoveY@OBJECT@@QEAAXXZ$rtcVarDesc DD 088H		; OBJECT::MoveY
	DD	010H
	DQ	FLAT:?MoveY@OBJECT@@QEAAXXZ$rtcName$1
	DD	058H
	DD	010H
	DQ	FLAT:?MoveY@OBJECT@@QEAAXXZ$rtcName$0
	ORG $+96
?MoveY@OBJECT@@QEAAXXZ$rtcFrameData DD 02H		; OBJECT::MoveY
	DD	00H
	DQ	FLAT:?MoveY@OBJECT@@QEAAXXZ$rtcVarDesc
?MoveX@OBJECT@@QEAAXM@Z$rtcName$0 DB 054H		; OBJECT::MoveX
	DB	065H
	DB	06dH
	DB	070H
	DB	051H
	DB	075H
	DB	061H
	DB	074H
	DB	00H
	ORG $+7
?MoveX@OBJECT@@QEAAXM@Z$rtcName$1 DB 054H		; OBJECT::MoveX
	DB	065H
	DB	06dH
	DB	070H
	DB	051H
	DB	075H
	DB	061H
	DB	074H
	DB	032H
	DB	00H
	ORG $+6
?MoveX@OBJECT@@QEAAXM@Z$rtcVarDesc DD 088H		; OBJECT::MoveX
	DD	010H
	DQ	FLAT:?MoveX@OBJECT@@QEAAXM@Z$rtcName$1
	DD	058H
	DD	010H
	DQ	FLAT:?MoveX@OBJECT@@QEAAXM@Z$rtcName$0
	ORG $+96
?MoveX@OBJECT@@QEAAXM@Z$rtcFrameData DD 02H		; OBJECT::MoveX
	DD	00H
	DQ	FLAT:?MoveX@OBJECT@@QEAAXM@Z$rtcVarDesc
?MoveY@OBJECT@@QEAAXM@Z$rtcName$0 DB 054H		; OBJECT::MoveY
	DB	065H
	DB	06dH
	DB	070H
	DB	051H
	DB	075H
	DB	061H
	DB	074H
	DB	00H
	ORG $+7
?MoveY@OBJECT@@QEAAXM@Z$rtcName$1 DB 054H		; OBJECT::MoveY
	DB	065H
	DB	06dH
	DB	070H
	DB	051H
	DB	075H
	DB	061H
	DB	074H
	DB	032H
	DB	00H
	ORG $+6
?MoveY@OBJECT@@QEAAXM@Z$rtcVarDesc DD 088H		; OBJECT::MoveY
	DD	010H
	DQ	FLAT:?MoveY@OBJECT@@QEAAXM@Z$rtcName$1
	DD	058H
	DD	010H
	DQ	FLAT:?MoveY@OBJECT@@QEAAXM@Z$rtcName$0
	ORG $+96
?MoveY@OBJECT@@QEAAXM@Z$rtcFrameData DD 02H		; OBJECT::MoveY
	DD	00H
	DQ	FLAT:?MoveY@OBJECT@@QEAAXM@Z$rtcVarDesc
?GetXUnit@OBJECT@@QEAA?AVVECTOR@@XZ$rtcName$0 DB 054H	; OBJECT::GetXUnit
	DB	065H
	DB	06dH
	DB	070H
	DB	051H
	DB	075H
	DB	061H
	DB	074H
	DB	00H
	ORG $+7
?GetXUnit@OBJECT@@QEAA?AVVECTOR@@XZ$rtcName$1 DB 054H	; OBJECT::GetXUnit
	DB	065H
	DB	06dH
	DB	070H
	DB	051H
	DB	075H
	DB	061H
	DB	074H
	DB	032H
	DB	00H
	ORG $+2
?GetXUnit@OBJECT@@QEAA?AVVECTOR@@XZ$rtcName$2 DB 055H	; OBJECT::GetXUnit
	DB	06eH
	DB	069H
	DB	074H
	DB	00H
	ORG $+15
?GetXUnit@OBJECT@@QEAA?AVVECTOR@@XZ$rtcVarDesc DD 0b8H	; OBJECT::GetXUnit
	DD	0cH
	DQ	FLAT:?GetXUnit@OBJECT@@QEAA?AVVECTOR@@XZ$rtcName$2
	DD	088H
	DD	010H
	DQ	FLAT:?GetXUnit@OBJECT@@QEAA?AVVECTOR@@XZ$rtcName$1
	DD	058H
	DD	010H
	DQ	FLAT:?GetXUnit@OBJECT@@QEAA?AVVECTOR@@XZ$rtcName$0
	ORG $+144
?GetXUnit@OBJECT@@QEAA?AVVECTOR@@XZ$rtcFrameData DD 03H	; OBJECT::GetXUnit
	DD	00H
	DQ	FLAT:?GetXUnit@OBJECT@@QEAA?AVVECTOR@@XZ$rtcVarDesc
?GetYUnit@OBJECT@@QEAA?AVVECTOR@@XZ$rtcName$0 DB 054H	; OBJECT::GetYUnit
	DB	065H
	DB	06dH
	DB	070H
	DB	051H
	DB	075H
	DB	061H
	DB	074H
	DB	00H
	ORG $+7
?GetYUnit@OBJECT@@QEAA?AVVECTOR@@XZ$rtcName$1 DB 054H	; OBJECT::GetYUnit
	DB	065H
	DB	06dH
	DB	070H
	DB	051H
	DB	075H
	DB	061H
	DB	074H
	DB	032H
	DB	00H
	ORG $+2
?GetYUnit@OBJECT@@QEAA?AVVECTOR@@XZ$rtcName$2 DB 055H	; OBJECT::GetYUnit
	DB	06eH
	DB	069H
	DB	074H
	DB	00H
	ORG $+15
?GetYUnit@OBJECT@@QEAA?AVVECTOR@@XZ$rtcVarDesc DD 0b8H	; OBJECT::GetYUnit
	DD	0cH
	DQ	FLAT:?GetYUnit@OBJECT@@QEAA?AVVECTOR@@XZ$rtcName$2
	DD	088H
	DD	010H
	DQ	FLAT:?GetYUnit@OBJECT@@QEAA?AVVECTOR@@XZ$rtcName$1
	DD	058H
	DD	010H
	DQ	FLAT:?GetYUnit@OBJECT@@QEAA?AVVECTOR@@XZ$rtcName$0
	ORG $+144
?GetYUnit@OBJECT@@QEAA?AVVECTOR@@XZ$rtcFrameData DD 03H	; OBJECT::GetYUnit
	DD	00H
	DQ	FLAT:?GetYUnit@OBJECT@@QEAA?AVVECTOR@@XZ$rtcVarDesc
?GetZUnit@OBJECT@@QEAA?AVVECTOR@@XZ$rtcName$0 DB 055H	; OBJECT::GetZUnit
	DB	06eH
	DB	069H
	DB	074H
	DB	00H
	ORG $+11
?GetZUnit@OBJECT@@QEAA?AVVECTOR@@XZ$rtcVarDesc DD 048H	; OBJECT::GetZUnit
	DD	0cH
	DQ	FLAT:?GetZUnit@OBJECT@@QEAA?AVVECTOR@@XZ$rtcName$0
	ORG $+48
?GetZUnit@OBJECT@@QEAA?AVVECTOR@@XZ$rtcFrameData DD 01H	; OBJECT::GetZUnit
	DD	00H
	DQ	FLAT:?GetZUnit@OBJECT@@QEAA?AVVECTOR@@XZ$rtcVarDesc
CONST	ENDS
voltbl	SEGMENT
_volmd	DD	0ffffffffH
	DDSymXIndex: 	FLAT:?dtor$1@?0??GetYUnit@OBJECT@@QEAA?AVVECTOR@@XZ@4HA
	DD	00H
	DD	05H
_volmd	DD	0ffffffffH
	DDSymXIndex: 	FLAT:?dtor$0@?0??GetYUnit@OBJECT@@QEAA?AVVECTOR@@XZ@4HA
	DD	00H
	DD	05H
_volmd	DD	0ffffffffH
	DDSymXIndex: 	FLAT:?dtor$1@?0??GetXUnit@OBJECT@@QEAA?AVVECTOR@@XZ@4HA
	DD	00H
	DD	05H
_volmd	DD	0ffffffffH
	DDSymXIndex: 	FLAT:?dtor$0@?0??GetXUnit@OBJECT@@QEAA?AVVECTOR@@XZ@4HA
	DD	00H
	DD	05H
_volmd	DD	0ffffffffH
	DDSymXIndex: 	FLAT:?dtor$1@?0??MoveY@OBJECT@@QEAAXM@Z@4HA
	DD	00H
	DD	05H
_volmd	DD	0ffffffffH
	DDSymXIndex: 	FLAT:?dtor$0@?0??MoveY@OBJECT@@QEAAXM@Z@4HA
	DD	00H
	DD	05H
_volmd	DD	0ffffffffH
	DDSymXIndex: 	FLAT:?dtor$1@?0??MoveX@OBJECT@@QEAAXM@Z@4HA
	DD	00H
	DD	05H
_volmd	DD	0ffffffffH
	DDSymXIndex: 	FLAT:?dtor$0@?0??MoveX@OBJECT@@QEAAXM@Z@4HA
	DD	00H
	DD	05H
_volmd	DD	0ffffffffH
	DDSymXIndex: 	FLAT:?dtor$1@?0??MoveY@OBJECT@@QEAAXXZ@4HA
	DD	00H
	DD	05H
_volmd	DD	0ffffffffH
	DDSymXIndex: 	FLAT:?dtor$0@?0??MoveY@OBJECT@@QEAAXXZ@4HA
	DD	00H
	DD	05H
_volmd	DD	0ffffffffH
	DDSymXIndex: 	FLAT:?dtor$1@?0??MoveX@OBJECT@@QEAAXXZ@4HA
	DD	00H
	DD	05H
_volmd	DD	0ffffffffH
	DDSymXIndex: 	FLAT:?dtor$0@?0??MoveX@OBJECT@@QEAAXXZ@4HA
	DD	00H
	DD	05H
_volmd	DD	0ffffffffH
	DDSymXIndex: 	FLAT:?dtor$0@?0??Rotate@OBJECT@@QEAAXXZ@4HA
	DD	00H
	DD	05H
_volmd	DD	0ffffffffH
	DDSymXIndex: 	FLAT:?dtor$0@?0???0OBJECT@@QEAA@XZ@4HA
	DD	00H
	DD	05H
voltbl	ENDS
xdata	SEGMENT
$unwind$??0OBJECT@@QEAA@XZ DD 020a11H
	DD	07006520aH
	DD	imagerel __CxxFrameHandler4
	DD	imagerel $cppxdata$??0OBJECT@@QEAA@XZ
$cppxdata$??0OBJECT@@QEAA@XZ DB 028H
	DD	imagerel $stateUnwindMap$??0OBJECT@@QEAA@XZ
	DD	imagerel $ip2state$??0OBJECT@@QEAA@XZ
$stateUnwindMap$??0OBJECT@@QEAA@XZ DB 02H
	DB	0eH
	DD	imagerel ?dtor$0@?0???0OBJECT@@QEAA@XZ@4HA
$ip2state$??0OBJECT@@QEAA@XZ DB 06H
	DB	00H
	DB	00H
	DB	'^'
	DB	02H
	DB	'6'
	DB	00H
	ORG $+2
$unwind$?dtor$0@?0???0OBJECT@@QEAA@XZ@4HA DD 031001H
	DD	0700c4210H
	DD	0500bH
$unwind$??1OBJECT@@QEAA@XZ DD 020a01H
	DD	07006320aH
$unwind$?Set@OBJECT@@QEAAXXZ DD 020a01H
	DD	07006320aH
$unwind$?Rotate@OBJECT@@QEAAXXZ DD 042711H
	DD	011010eH
	DD	060067007H
	DD	imagerel __CxxFrameHandler4
	DD	imagerel $cppxdata$?Rotate@OBJECT@@QEAAXXZ
$cppxdata$?Rotate@OBJECT@@QEAAXXZ DB 028H
	DD	imagerel $stateUnwindMap$?Rotate@OBJECT@@QEAAXXZ
	DD	imagerel $ip2state$?Rotate@OBJECT@@QEAAXXZ
$stateUnwindMap$?Rotate@OBJECT@@QEAAXXZ DB 02H
	DB	0eH
	DD	imagerel ?dtor$0@?0??Rotate@OBJECT@@QEAAXXZ@4HA
$ip2state$?Rotate@OBJECT@@QEAAXXZ DB 06H
	DB	00H
	DB	00H
	DB	092H
	DB	02H
	DB	0c9H, 02H
	DB	00H
	ORG $+1
$unwind$?dtor$0@?0??Rotate@OBJECT@@QEAAXXZ@4HA DD 031001H
	DD	0700c4210H
	DD	0500bH
$unwind$?Draw@OBJECT@@QEAAXXZ DD 010601H
	DD	07006H
$unwind$?UpdatePosition@OBJECT@@QEAAXXZ DD 020a01H
	DD	07006320aH
$unwind$?UpdatePosition@OBJECT@@QEAAXMMM@Z DD 021c01H
	DD	07018321cH
$unwind$?MoveX@OBJECT@@QEAAXXZ DD 042711H
	DD	019010eH
	DD	060067007H
	DD	imagerel __CxxFrameHandler4
	DD	imagerel $cppxdata$?MoveX@OBJECT@@QEAAXXZ
$cppxdata$?MoveX@OBJECT@@QEAAXXZ DB 028H
	DD	imagerel $stateUnwindMap$?MoveX@OBJECT@@QEAAXXZ
	DD	imagerel $ip2state$?MoveX@OBJECT@@QEAAXXZ
$stateUnwindMap$?MoveX@OBJECT@@QEAAXXZ DB 04H
	DB	0eH
	DD	imagerel ?dtor$0@?0??MoveX@OBJECT@@QEAAXXZ@4HA
	DB	02eH
	DD	imagerel ?dtor$1@?0??MoveX@OBJECT@@QEAAXXZ@4HA
$ip2state$?MoveX@OBJECT@@QEAAXXZ DB 0aH
	DB	00H
	DB	00H
	DB	0daH
	DB	02H
	DB	'J'
	DB	04H
	DB	0c1H, 08H
	DB	02H
	DB	01cH
	DB	00H
$unwind$?dtor$0@?0??MoveX@OBJECT@@QEAAXXZ@4HA DD 031001H
	DD	0700c4210H
	DD	0500bH
$unwind$?dtor$1@?0??MoveX@OBJECT@@QEAAXXZ@4HA DD 031001H
	DD	0700c4210H
	DD	0500bH
$unwind$?MoveY@OBJECT@@QEAAXXZ DD 042711H
	DD	019010eH
	DD	060067007H
	DD	imagerel __CxxFrameHandler4
	DD	imagerel $cppxdata$?MoveY@OBJECT@@QEAAXXZ
$cppxdata$?MoveY@OBJECT@@QEAAXXZ DB 028H
	DD	imagerel $stateUnwindMap$?MoveY@OBJECT@@QEAAXXZ
	DD	imagerel $ip2state$?MoveY@OBJECT@@QEAAXXZ
$stateUnwindMap$?MoveY@OBJECT@@QEAAXXZ DB 04H
	DB	0eH
	DD	imagerel ?dtor$0@?0??MoveY@OBJECT@@QEAAXXZ@4HA
	DB	02eH
	DD	imagerel ?dtor$1@?0??MoveY@OBJECT@@QEAAXXZ@4HA
$ip2state$?MoveY@OBJECT@@QEAAXXZ DB 0aH
	DB	00H
	DB	00H
	DB	0daH
	DB	02H
	DB	'J'
	DB	04H
	DB	0c1H, 08H
	DB	02H
	DB	01cH
	DB	00H
$unwind$?dtor$0@?0??MoveY@OBJECT@@QEAAXXZ@4HA DD 031001H
	DD	0700c4210H
	DD	0500bH
$unwind$?dtor$1@?0??MoveY@OBJECT@@QEAAXXZ@4HA DD 031001H
	DD	0700c4210H
	DD	0500bH
$unwind$?MoveZ@OBJECT@@QEAAXXZ DD 020a01H
	DD	07006320aH
$unwind$?MoveX@OBJECT@@QEAAXM@Z DD 042d11H
	DD	0190114H
	DD	0600c700dH
	DD	imagerel __CxxFrameHandler4
	DD	imagerel $cppxdata$?MoveX@OBJECT@@QEAAXM@Z
$cppxdata$?MoveX@OBJECT@@QEAAXM@Z DB 028H
	DD	imagerel $stateUnwindMap$?MoveX@OBJECT@@QEAAXM@Z
	DD	imagerel $ip2state$?MoveX@OBJECT@@QEAAXM@Z
$stateUnwindMap$?MoveX@OBJECT@@QEAAXM@Z DB 04H
	DB	0eH
	DD	imagerel ?dtor$0@?0??MoveX@OBJECT@@QEAAXM@Z@4HA
	DB	02eH
	DD	imagerel ?dtor$1@?0??MoveX@OBJECT@@QEAAXM@Z@4HA
$ip2state$?MoveX@OBJECT@@QEAAXM@Z DB 0aH
	DB	00H
	DB	00H
	DB	0e6H
	DB	02H
	DB	'J'
	DB	04H
	DB	091H, 08H
	DB	02H
	DB	01cH
	DB	00H
$unwind$?dtor$0@?0??MoveX@OBJECT@@QEAAXM@Z@4HA DD 031001H
	DD	0700c4210H
	DD	0500bH
$unwind$?dtor$1@?0??MoveX@OBJECT@@QEAAXM@Z@4HA DD 031001H
	DD	0700c4210H
	DD	0500bH
$unwind$?MoveY@OBJECT@@QEAAXM@Z DD 042d11H
	DD	0190114H
	DD	0600c700dH
	DD	imagerel __CxxFrameHandler4
	DD	imagerel $cppxdata$?MoveY@OBJECT@@QEAAXM@Z
$cppxdata$?MoveY@OBJECT@@QEAAXM@Z DB 028H
	DD	imagerel $stateUnwindMap$?MoveY@OBJECT@@QEAAXM@Z
	DD	imagerel $ip2state$?MoveY@OBJECT@@QEAAXM@Z
$stateUnwindMap$?MoveY@OBJECT@@QEAAXM@Z DB 04H
	DB	0eH
	DD	imagerel ?dtor$0@?0??MoveY@OBJECT@@QEAAXM@Z@4HA
	DB	02eH
	DD	imagerel ?dtor$1@?0??MoveY@OBJECT@@QEAAXM@Z@4HA
$ip2state$?MoveY@OBJECT@@QEAAXM@Z DB 0aH
	DB	00H
	DB	00H
	DB	0e6H
	DB	02H
	DB	'J'
	DB	04H
	DB	091H, 08H
	DB	02H
	DB	01cH
	DB	00H
$unwind$?dtor$0@?0??MoveY@OBJECT@@QEAAXM@Z@4HA DD 031001H
	DD	0700c4210H
	DD	0500bH
$unwind$?dtor$1@?0??MoveY@OBJECT@@QEAAXM@Z@4HA DD 031001H
	DD	0700c4210H
	DD	0500bH
$unwind$?MoveZ@OBJECT@@QEAAXM@Z DD 021001H
	DD	0700c3210H
$unwind$?GetXUnit@OBJECT@@QEAA?AVVECTOR@@XZ DD 042c11H
	DD	0210113H
	DD	0600b700cH
	DD	imagerel __CxxFrameHandler4
	DD	imagerel $cppxdata$?GetXUnit@OBJECT@@QEAA?AVVECTOR@@XZ
$cppxdata$?GetXUnit@OBJECT@@QEAA?AVVECTOR@@XZ DB 028H
	DD	imagerel $stateUnwindMap$?GetXUnit@OBJECT@@QEAA?AVVECTOR@@XZ
	DD	imagerel $ip2state$?GetXUnit@OBJECT@@QEAA?AVVECTOR@@XZ
$stateUnwindMap$?GetXUnit@OBJECT@@QEAA?AVVECTOR@@XZ DB 04H
	DB	0eH
	DD	imagerel ?dtor$0@?0??GetXUnit@OBJECT@@QEAA?AVVECTOR@@XZ@4HA
	DB	02eH
	DD	imagerel ?dtor$1@?0??GetXUnit@OBJECT@@QEAA?AVVECTOR@@XZ@4HA
$ip2state$?GetXUnit@OBJECT@@QEAA?AVVECTOR@@XZ DB 0aH
	DB	00H
	DB	00H
	DB	0faH
	DB	02H
	DB	'J'
	DB	04H
	DB	0c5H, 08H
	DB	02H
	DB	01cH
	DB	00H
$unwind$?dtor$0@?0??GetXUnit@OBJECT@@QEAA?AVVECTOR@@XZ@4HA DD 031001H
	DD	0700c4210H
	DD	0500bH
$unwind$?dtor$1@?0??GetXUnit@OBJECT@@QEAA?AVVECTOR@@XZ@4HA DD 031001H
	DD	0700c4210H
	DD	0500bH
$unwind$?GetYUnit@OBJECT@@QEAA?AVVECTOR@@XZ DD 042c11H
	DD	0210113H
	DD	0600b700cH
	DD	imagerel __CxxFrameHandler4
	DD	imagerel $cppxdata$?GetYUnit@OBJECT@@QEAA?AVVECTOR@@XZ
$cppxdata$?GetYUnit@OBJECT@@QEAA?AVVECTOR@@XZ DB 028H
	DD	imagerel $stateUnwindMap$?GetYUnit@OBJECT@@QEAA?AVVECTOR@@XZ
	DD	imagerel $ip2state$?GetYUnit@OBJECT@@QEAA?AVVECTOR@@XZ
$stateUnwindMap$?GetYUnit@OBJECT@@QEAA?AVVECTOR@@XZ DB 04H
	DB	0eH
	DD	imagerel ?dtor$0@?0??GetYUnit@OBJECT@@QEAA?AVVECTOR@@XZ@4HA
	DB	02eH
	DD	imagerel ?dtor$1@?0??GetYUnit@OBJECT@@QEAA?AVVECTOR@@XZ@4HA
$ip2state$?GetYUnit@OBJECT@@QEAA?AVVECTOR@@XZ DB 0aH
	DB	00H
	DB	00H
	DB	0faH
	DB	02H
	DB	'J'
	DB	04H
	DB	0c5H, 08H
	DB	02H
	DB	01cH
	DB	00H
$unwind$?dtor$0@?0??GetYUnit@OBJECT@@QEAA?AVVECTOR@@XZ@4HA DD 031001H
	DD	0700c4210H
	DD	0500bH
$unwind$?dtor$1@?0??GetYUnit@OBJECT@@QEAA?AVVECTOR@@XZ@4HA DD 031001H
	DD	0700c4210H
	DD	0500bH
$unwind$?GetZUnit@OBJECT@@QEAA?AVVECTOR@@XZ DD 032901H
	DD	0700ce210H
	DD	0600bH
xdata	ENDS
;	COMDAT xdata
xdata	SEGMENT
$unwind$?__empty_global_delete@@YAXPEAX_K@Z DD 010b01H
	DD	0700bH
xdata	ENDS
;	COMDAT xdata
xdata	SEGMENT
$unwind$?__empty_global_delete@@YAXPEAX@Z DD 010601H
	DD	07006H
xdata	ENDS
; Function compile flags: /Odtp /RTCsu
_TEXT	SEGMENT
DirX$ = 32
DirY$ = 36
DirZ$ = 40
W$ = 44
X$ = 48
Y$ = 52
Z$ = 56
Unit$ = 72
$T4 = 100
this$ = 144
__$ReturnUdt$ = 152
?GetZUnit@OBJECT@@QEAA?AVVECTOR@@XZ PROC		; OBJECT::GetZUnit
; File D:\dev\cpp\40_BIM\01_AlanBaylis\cpp\OGLMDI2_VS2022\Build01\object.cpp
; Line 259
$LN6:
	mov	QWORD PTR [rsp+16], rdx
	mov	QWORD PTR [rsp+8], rcx
	push	rsi
	push	rdi
	sub	rsp, 120				; 00000078H
	lea	rdi, QWORD PTR [rsp+32]
	mov	ecx, 22
	mov	eax, -858993460				; ccccccccH
	rep stosd
	mov	rcx, QWORD PTR [rsp+144]
	mov	DWORD PTR $T4[rsp], 0
; Line 263
	mov	rax, QWORD PTR this$[rsp]
	movss	xmm0, DWORD PTR [rax+12]
	movss	DWORD PTR W$[rsp], xmm0
; Line 264
	mov	rax, QWORD PTR this$[rsp]
	movss	xmm0, DWORD PTR [rax]
	movss	DWORD PTR X$[rsp], xmm0
; Line 265
	mov	rax, QWORD PTR this$[rsp]
	movss	xmm0, DWORD PTR [rax+4]
	movss	DWORD PTR Y$[rsp], xmm0
; Line 266
	mov	rax, QWORD PTR this$[rsp]
	movss	xmm0, DWORD PTR [rax+8]
	movss	DWORD PTR Z$[rsp], xmm0
; Line 267
	movss	xmm0, DWORD PTR X$[rsp]
	mulss	xmm0, DWORD PTR Z$[rsp]
	movss	xmm1, DWORD PTR W$[rsp]
	mulss	xmm1, DWORD PTR Y$[rsp]
	subss	xmm0, xmm1
	cvtss2sd xmm0, xmm0
	movsd	xmm1, QWORD PTR __real@4000000000000000
	mulsd	xmm1, xmm0
	movaps	xmm0, xmm1
	cvtsd2ss xmm0, xmm0
	movss	DWORD PTR DirX$[rsp], xmm0
; Line 268
	movss	xmm0, DWORD PTR Y$[rsp]
	mulss	xmm0, DWORD PTR Z$[rsp]
	movss	xmm1, DWORD PTR W$[rsp]
	mulss	xmm1, DWORD PTR X$[rsp]
	addss	xmm0, xmm1
	cvtss2sd xmm0, xmm0
	movsd	xmm1, QWORD PTR __real@4000000000000000
	mulsd	xmm1, xmm0
	movaps	xmm0, xmm1
	cvtsd2ss xmm0, xmm0
	movss	DWORD PTR DirY$[rsp], xmm0
; Line 269
	movss	xmm0, DWORD PTR X$[rsp]
	mulss	xmm0, DWORD PTR X$[rsp]
	movss	xmm1, DWORD PTR Y$[rsp]
	mulss	xmm1, DWORD PTR Y$[rsp]
	addss	xmm0, xmm1
	cvtss2sd xmm0, xmm0
	movsd	xmm1, QWORD PTR __real@4000000000000000
	mulsd	xmm1, xmm0
	movaps	xmm0, xmm1
	movsd	xmm1, QWORD PTR __real@3ff0000000000000
	subsd	xmm1, xmm0
	movaps	xmm0, xmm1
	cvtsd2ss xmm0, xmm0
	movss	DWORD PTR DirZ$[rsp], xmm0
; Line 270
	xorps	xmm3, xmm3
	xorps	xmm2, xmm2
	xorps	xmm1, xmm1
	lea	rcx, QWORD PTR Unit$[rsp]
	call	??0VECTOR@@QEAA@MMM@Z			; VECTOR::VECTOR
; Line 271
	movss	xmm0, DWORD PTR DirX$[rsp]
	mulss	xmm0, DWORD PTR __real@3f800000
	movss	xmm1, DWORD PTR Unit$[rsp]
	addss	xmm1, xmm0
	movaps	xmm0, xmm1
	movss	DWORD PTR Unit$[rsp], xmm0
; Line 272
	movss	xmm0, DWORD PTR DirY$[rsp]
	mulss	xmm0, DWORD PTR __real@3f800000
	movss	xmm1, DWORD PTR Unit$[rsp+4]
	addss	xmm1, xmm0
	movaps	xmm0, xmm1
	movss	DWORD PTR Unit$[rsp+4], xmm0
; Line 273
	movss	xmm0, DWORD PTR DirZ$[rsp]
	mulss	xmm0, DWORD PTR __real@3f800000
	movss	xmm1, DWORD PTR Unit$[rsp+8]
	addss	xmm1, xmm0
	movaps	xmm0, xmm1
	movss	DWORD PTR Unit$[rsp+8], xmm0
; Line 274
	lea	rax, QWORD PTR Unit$[rsp]
	mov	rdi, QWORD PTR __$ReturnUdt$[rsp]
	mov	rsi, rax
	mov	ecx, 12
	rep movsb
	mov	eax, DWORD PTR $T4[rsp]
	or	eax, 1
	mov	DWORD PTR $T4[rsp], eax
	lea	rcx, QWORD PTR Unit$[rsp]
	call	??1VECTOR@@QEAA@XZ			; VECTOR::~VECTOR
	mov	rax, QWORD PTR __$ReturnUdt$[rsp]
; Line 275
	mov	rdi, rax
	mov	rcx, rsp
	lea	rdx, OFFSET FLAT:?GetZUnit@OBJECT@@QEAA?AVVECTOR@@XZ$rtcFrameData
	call	_RTC_CheckStackVars
	mov	rax, rdi
	add	rsp, 120				; 00000078H
	pop	rdi
	pop	rsi
	ret	0
?GetZUnit@OBJECT@@QEAA?AVVECTOR@@XZ ENDP		; OBJECT::GetZUnit
_TEXT	ENDS
; Function compile flags: /Odtp /RTCsu
_TEXT	SEGMENT
DirX$ = 48
DirY$ = 52
DirZ$ = 56
W$ = 60
X$ = 64
Y$ = 68
Z$ = 72
TempQuat$ = 88
TempQuat2$ = 136
Unit$ = 184
$T6 = 224
$T7 = 240
this$ = 288
__$ReturnUdt$ = 296
?GetYUnit@OBJECT@@QEAA?AVVECTOR@@XZ PROC		; OBJECT::GetYUnit
; File D:\dev\cpp\40_BIM\01_AlanBaylis\cpp\OGLMDI2_VS2022\Build01\object.cpp
; Line 231
$LN8:
	mov	QWORD PTR [rsp+16], rdx
	mov	QWORD PTR [rsp+8], rcx
	push	rsi
	push	rdi
	sub	rsp, 264				; 00000108H
	lea	rdi, QWORD PTR [rsp+48]
	mov	ecx, 54					; 00000036H
	mov	eax, -858993460				; ccccccccH
	rep stosd
	mov	rcx, QWORD PTR [rsp+288]
	mov	DWORD PTR $T7[rsp], 0
; Line 235
	xorps	xmm0, xmm0
	movss	DWORD PTR W$[rsp], xmm0
; Line 236
	xorps	xmm0, xmm0
	movss	DWORD PTR X$[rsp], xmm0
; Line 237
	xorps	xmm0, xmm0
	movss	DWORD PTR Y$[rsp], xmm0
; Line 238
	xorps	xmm0, xmm0
	movss	DWORD PTR Z$[rsp], xmm0
; Line 239
	movss	xmm0, DWORD PTR __real@3f800000
	movss	DWORD PTR [rsp+32], xmm0
	xorps	xmm3, xmm3
	xorps	xmm2, xmm2
	xorps	xmm1, xmm1
	lea	rcx, QWORD PTR TempQuat$[rsp]
	call	??0QUAT@@QEAA@MMMM@Z			; QUAT::QUAT
	npad	1
; Line 240
	movss	xmm0, DWORD PTR __real@3f800000
	movss	DWORD PTR [rsp+32], xmm0
	xorps	xmm3, xmm3
	xorps	xmm2, xmm2
	xorps	xmm1, xmm1
	lea	rcx, QWORD PTR TempQuat2$[rsp]
	call	??0QUAT@@QEAA@MMMM@Z			; QUAT::QUAT
	npad	1
; Line 241
	lea	rax, QWORD PTR TempQuat$[rsp]
	mov	rdi, rax
	mov	rsi, QWORD PTR this$[rsp]
	mov	ecx, 16
	rep movsb
; Line 242
	movss	xmm0, DWORD PTR ?pi@@3MA		; pi
	divss	xmm0, DWORD PTR __real@43340000
	cvtss2sd xmm0, xmm0
	movsd	xmm1, QWORD PTR __real@4056800000000000
	mulsd	xmm1, xmm0
	movaps	xmm0, xmm1
	cvtsd2ss xmm0, xmm0
	xorps	xmm3, xmm3
	xorps	xmm2, xmm2
	movaps	xmm1, xmm0
	lea	rcx, QWORD PTR TempQuat2$[rsp]
	call	?EulerToQuat@QUAT@@QEAAXMMM@Z		; QUAT::EulerToQuat
; Line 243
	lea	rax, QWORD PTR $T6[rsp]
	lea	rcx, QWORD PTR TempQuat2$[rsp]
	mov	rdi, rax
	mov	rsi, rcx
	mov	ecx, 16
	rep movsb
	lea	rdx, QWORD PTR $T6[rsp]
	lea	rcx, QWORD PTR TempQuat$[rsp]
	call	?MultQuat@QUAT@@QEAAXV1@@Z		; QUAT::MultQuat
; Line 244
	movss	xmm0, DWORD PTR TempQuat$[rsp+12]
	movss	DWORD PTR W$[rsp], xmm0
; Line 245
	movss	xmm0, DWORD PTR TempQuat$[rsp]
	movss	DWORD PTR X$[rsp], xmm0
; Line 246
	movss	xmm0, DWORD PTR TempQuat$[rsp+4]
	movss	DWORD PTR Y$[rsp], xmm0
; Line 247
	movss	xmm0, DWORD PTR TempQuat$[rsp+8]
	movss	DWORD PTR Z$[rsp], xmm0
; Line 248
	movss	xmm0, DWORD PTR X$[rsp]
	mulss	xmm0, DWORD PTR Z$[rsp]
	movss	xmm1, DWORD PTR W$[rsp]
	mulss	xmm1, DWORD PTR Y$[rsp]
	subss	xmm0, xmm1
	cvtss2sd xmm0, xmm0
	movsd	xmm1, QWORD PTR __real@4000000000000000
	mulsd	xmm1, xmm0
	movaps	xmm0, xmm1
	cvtsd2ss xmm0, xmm0
	movss	DWORD PTR DirX$[rsp], xmm0
; Line 249
	movss	xmm0, DWORD PTR Y$[rsp]
	mulss	xmm0, DWORD PTR Z$[rsp]
	movss	xmm1, DWORD PTR W$[rsp]
	mulss	xmm1, DWORD PTR X$[rsp]
	addss	xmm0, xmm1
	cvtss2sd xmm0, xmm0
	movsd	xmm1, QWORD PTR __real@4000000000000000
	mulsd	xmm1, xmm0
	movaps	xmm0, xmm1
	cvtsd2ss xmm0, xmm0
	movss	DWORD PTR DirY$[rsp], xmm0
; Line 250
	movss	xmm0, DWORD PTR X$[rsp]
	mulss	xmm0, DWORD PTR X$[rsp]
	movss	xmm1, DWORD PTR Y$[rsp]
	mulss	xmm1, DWORD PTR Y$[rsp]
	addss	xmm0, xmm1
	cvtss2sd xmm0, xmm0
	movsd	xmm1, QWORD PTR __real@4000000000000000
	mulsd	xmm1, xmm0
	movaps	xmm0, xmm1
	movsd	xmm1, QWORD PTR __real@3ff0000000000000
	subsd	xmm1, xmm0
	movaps	xmm0, xmm1
	cvtsd2ss xmm0, xmm0
	movss	DWORD PTR DirZ$[rsp], xmm0
; Line 251
	xorps	xmm3, xmm3
	xorps	xmm2, xmm2
	xorps	xmm1, xmm1
	lea	rcx, QWORD PTR Unit$[rsp]
	call	??0VECTOR@@QEAA@MMM@Z			; VECTOR::VECTOR
; Line 252
	movss	xmm0, DWORD PTR DirX$[rsp]
	mulss	xmm0, DWORD PTR __real@3f800000
	movss	xmm1, DWORD PTR Unit$[rsp]
	addss	xmm1, xmm0
	movaps	xmm0, xmm1
	movss	DWORD PTR Unit$[rsp], xmm0
; Line 253
	movss	xmm0, DWORD PTR DirY$[rsp]
	mulss	xmm0, DWORD PTR __real@3f800000
	movss	xmm1, DWORD PTR Unit$[rsp+4]
	addss	xmm1, xmm0
	movaps	xmm0, xmm1
	movss	DWORD PTR Unit$[rsp+4], xmm0
; Line 254
	movss	xmm0, DWORD PTR DirZ$[rsp]
	mulss	xmm0, DWORD PTR __real@3f800000
	movss	xmm1, DWORD PTR Unit$[rsp+8]
	addss	xmm1, xmm0
	movaps	xmm0, xmm1
	movss	DWORD PTR Unit$[rsp+8], xmm0
; Line 255
	lea	rax, QWORD PTR Unit$[rsp]
	mov	rdi, QWORD PTR __$ReturnUdt$[rsp]
	mov	rsi, rax
	mov	ecx, 12
	rep movsb
	mov	eax, DWORD PTR $T7[rsp]
	or	eax, 1
	mov	DWORD PTR $T7[rsp], eax
	lea	rcx, QWORD PTR Unit$[rsp]
	call	??1VECTOR@@QEAA@XZ			; VECTOR::~VECTOR
	npad	1
	lea	rcx, QWORD PTR TempQuat2$[rsp]
	call	??1QUAT@@QEAA@XZ			; QUAT::~QUAT
	npad	1
	lea	rcx, QWORD PTR TempQuat$[rsp]
	call	??1QUAT@@QEAA@XZ			; QUAT::~QUAT
	mov	rax, QWORD PTR __$ReturnUdt$[rsp]
; Line 256
	mov	rdi, rax
	mov	rcx, rsp
	lea	rdx, OFFSET FLAT:?GetYUnit@OBJECT@@QEAA?AVVECTOR@@XZ$rtcFrameData
	call	_RTC_CheckStackVars
	mov	rax, rdi
	add	rsp, 264				; 00000108H
	pop	rdi
	pop	rsi
	ret	0
?GetYUnit@OBJECT@@QEAA?AVVECTOR@@XZ ENDP		; OBJECT::GetYUnit
_TEXT	ENDS
; Function compile flags: /Odtp /RTCsu
text$x	SEGMENT
DirX$ = 48
DirY$ = 52
DirZ$ = 56
W$ = 60
X$ = 64
Y$ = 68
Z$ = 72
TempQuat$ = 88
TempQuat2$ = 136
Unit$ = 184
$T6 = 224
$T7 = 240
this$ = 288
__$ReturnUdt$ = 296
?dtor$0@?0??GetYUnit@OBJECT@@QEAA?AVVECTOR@@XZ@4HA PROC	; `OBJECT::GetYUnit'::`1'::dtor$0
	mov	QWORD PTR [rsp+8], rcx
	mov	QWORD PTR [rsp+16], rdx
	push	rbp
	push	rdi
	sub	rsp, 40					; 00000028H
	mov	rbp, rdx
	lea	rcx, QWORD PTR TempQuat$[rbp]
	call	??1QUAT@@QEAA@XZ			; QUAT::~QUAT
	add	rsp, 40					; 00000028H
	pop	rdi
	pop	rbp
	ret	0
?dtor$0@?0??GetYUnit@OBJECT@@QEAA?AVVECTOR@@XZ@4HA ENDP	; `OBJECT::GetYUnit'::`1'::dtor$0
text$x	ENDS
; Function compile flags: /Odtp /RTCsu
text$x	SEGMENT
DirX$ = 48
DirY$ = 52
DirZ$ = 56
W$ = 60
X$ = 64
Y$ = 68
Z$ = 72
TempQuat$ = 88
TempQuat2$ = 136
Unit$ = 184
$T6 = 224
$T7 = 240
this$ = 288
__$ReturnUdt$ = 296
?dtor$1@?0??GetYUnit@OBJECT@@QEAA?AVVECTOR@@XZ@4HA PROC	; `OBJECT::GetYUnit'::`1'::dtor$1
	mov	QWORD PTR [rsp+8], rcx
	mov	QWORD PTR [rsp+16], rdx
	push	rbp
	push	rdi
	sub	rsp, 40					; 00000028H
	mov	rbp, rdx
	lea	rcx, QWORD PTR TempQuat2$[rbp]
	call	??1QUAT@@QEAA@XZ			; QUAT::~QUAT
	add	rsp, 40					; 00000028H
	pop	rdi
	pop	rbp
	ret	0
?dtor$1@?0??GetYUnit@OBJECT@@QEAA?AVVECTOR@@XZ@4HA ENDP	; `OBJECT::GetYUnit'::`1'::dtor$1
text$x	ENDS
; Function compile flags: /Odtp /RTCsu
_TEXT	SEGMENT
DirX$ = 48
DirY$ = 52
DirZ$ = 56
W$ = 60
X$ = 64
Y$ = 68
Z$ = 72
TempQuat$ = 88
TempQuat2$ = 136
Unit$ = 184
$T6 = 224
$T7 = 240
this$ = 288
__$ReturnUdt$ = 296
?GetXUnit@OBJECT@@QEAA?AVVECTOR@@XZ PROC		; OBJECT::GetXUnit
; File D:\dev\cpp\40_BIM\01_AlanBaylis\cpp\OGLMDI2_VS2022\Build01\object.cpp
; Line 203
$LN8:
	mov	QWORD PTR [rsp+16], rdx
	mov	QWORD PTR [rsp+8], rcx
	push	rsi
	push	rdi
	sub	rsp, 264				; 00000108H
	lea	rdi, QWORD PTR [rsp+48]
	mov	ecx, 54					; 00000036H
	mov	eax, -858993460				; ccccccccH
	rep stosd
	mov	rcx, QWORD PTR [rsp+288]
	mov	DWORD PTR $T7[rsp], 0
; Line 207
	xorps	xmm0, xmm0
	movss	DWORD PTR W$[rsp], xmm0
; Line 208
	xorps	xmm0, xmm0
	movss	DWORD PTR X$[rsp], xmm0
; Line 209
	xorps	xmm0, xmm0
	movss	DWORD PTR Y$[rsp], xmm0
; Line 210
	xorps	xmm0, xmm0
	movss	DWORD PTR Z$[rsp], xmm0
; Line 211
	movss	xmm0, DWORD PTR __real@3f800000
	movss	DWORD PTR [rsp+32], xmm0
	xorps	xmm3, xmm3
	xorps	xmm2, xmm2
	xorps	xmm1, xmm1
	lea	rcx, QWORD PTR TempQuat$[rsp]
	call	??0QUAT@@QEAA@MMMM@Z			; QUAT::QUAT
	npad	1
; Line 212
	movss	xmm0, DWORD PTR __real@3f800000
	movss	DWORD PTR [rsp+32], xmm0
	xorps	xmm3, xmm3
	xorps	xmm2, xmm2
	xorps	xmm1, xmm1
	lea	rcx, QWORD PTR TempQuat2$[rsp]
	call	??0QUAT@@QEAA@MMMM@Z			; QUAT::QUAT
	npad	1
; Line 213
	lea	rax, QWORD PTR TempQuat$[rsp]
	mov	rdi, rax
	mov	rsi, QWORD PTR this$[rsp]
	mov	ecx, 16
	rep movsb
; Line 214
	movss	xmm0, DWORD PTR ?pi@@3MA		; pi
	divss	xmm0, DWORD PTR __real@43340000
	cvtss2sd xmm0, xmm0
	movsd	xmm1, QWORD PTR __real@c056800000000000
	mulsd	xmm1, xmm0
	movaps	xmm0, xmm1
	cvtsd2ss xmm0, xmm0
	xorps	xmm3, xmm3
	movaps	xmm2, xmm0
	xorps	xmm1, xmm1
	lea	rcx, QWORD PTR TempQuat2$[rsp]
	call	?EulerToQuat@QUAT@@QEAAXMMM@Z		; QUAT::EulerToQuat
; Line 215
	lea	rax, QWORD PTR $T6[rsp]
	lea	rcx, QWORD PTR TempQuat2$[rsp]
	mov	rdi, rax
	mov	rsi, rcx
	mov	ecx, 16
	rep movsb
	lea	rdx, QWORD PTR $T6[rsp]
	lea	rcx, QWORD PTR TempQuat$[rsp]
	call	?MultQuat@QUAT@@QEAAXV1@@Z		; QUAT::MultQuat
; Line 216
	movss	xmm0, DWORD PTR TempQuat$[rsp+12]
	movss	DWORD PTR W$[rsp], xmm0
; Line 217
	movss	xmm0, DWORD PTR TempQuat$[rsp]
	movss	DWORD PTR X$[rsp], xmm0
; Line 218
	movss	xmm0, DWORD PTR TempQuat$[rsp+4]
	movss	DWORD PTR Y$[rsp], xmm0
; Line 219
	movss	xmm0, DWORD PTR TempQuat$[rsp+8]
	movss	DWORD PTR Z$[rsp], xmm0
; Line 220
	movss	xmm0, DWORD PTR X$[rsp]
	mulss	xmm0, DWORD PTR Z$[rsp]
	movss	xmm1, DWORD PTR W$[rsp]
	mulss	xmm1, DWORD PTR Y$[rsp]
	subss	xmm0, xmm1
	cvtss2sd xmm0, xmm0
	movsd	xmm1, QWORD PTR __real@4000000000000000
	mulsd	xmm1, xmm0
	movaps	xmm0, xmm1
	cvtsd2ss xmm0, xmm0
	movss	DWORD PTR DirX$[rsp], xmm0
; Line 221
	movss	xmm0, DWORD PTR Y$[rsp]
	mulss	xmm0, DWORD PTR Z$[rsp]
	movss	xmm1, DWORD PTR W$[rsp]
	mulss	xmm1, DWORD PTR X$[rsp]
	addss	xmm0, xmm1
	cvtss2sd xmm0, xmm0
	movsd	xmm1, QWORD PTR __real@4000000000000000
	mulsd	xmm1, xmm0
	movaps	xmm0, xmm1
	cvtsd2ss xmm0, xmm0
	movss	DWORD PTR DirY$[rsp], xmm0
; Line 222
	movss	xmm0, DWORD PTR X$[rsp]
	mulss	xmm0, DWORD PTR X$[rsp]
	movss	xmm1, DWORD PTR Y$[rsp]
	mulss	xmm1, DWORD PTR Y$[rsp]
	addss	xmm0, xmm1
	cvtss2sd xmm0, xmm0
	movsd	xmm1, QWORD PTR __real@4000000000000000
	mulsd	xmm1, xmm0
	movaps	xmm0, xmm1
	movsd	xmm1, QWORD PTR __real@3ff0000000000000
	subsd	xmm1, xmm0
	movaps	xmm0, xmm1
	cvtsd2ss xmm0, xmm0
	movss	DWORD PTR DirZ$[rsp], xmm0
; Line 223
	xorps	xmm3, xmm3
	xorps	xmm2, xmm2
	xorps	xmm1, xmm1
	lea	rcx, QWORD PTR Unit$[rsp]
	call	??0VECTOR@@QEAA@MMM@Z			; VECTOR::VECTOR
; Line 224
	movss	xmm0, DWORD PTR DirX$[rsp]
	mulss	xmm0, DWORD PTR __real@3f800000
	movss	xmm1, DWORD PTR Unit$[rsp]
	addss	xmm1, xmm0
	movaps	xmm0, xmm1
	movss	DWORD PTR Unit$[rsp], xmm0
; Line 225
	movss	xmm0, DWORD PTR DirY$[rsp]
	mulss	xmm0, DWORD PTR __real@3f800000
	movss	xmm1, DWORD PTR Unit$[rsp+4]
	addss	xmm1, xmm0
	movaps	xmm0, xmm1
	movss	DWORD PTR Unit$[rsp+4], xmm0
; Line 226
	movss	xmm0, DWORD PTR DirZ$[rsp]
	mulss	xmm0, DWORD PTR __real@3f800000
	movss	xmm1, DWORD PTR Unit$[rsp+8]
	addss	xmm1, xmm0
	movaps	xmm0, xmm1
	movss	DWORD PTR Unit$[rsp+8], xmm0
; Line 227
	lea	rax, QWORD PTR Unit$[rsp]
	mov	rdi, QWORD PTR __$ReturnUdt$[rsp]
	mov	rsi, rax
	mov	ecx, 12
	rep movsb
	mov	eax, DWORD PTR $T7[rsp]
	or	eax, 1
	mov	DWORD PTR $T7[rsp], eax
	lea	rcx, QWORD PTR Unit$[rsp]
	call	??1VECTOR@@QEAA@XZ			; VECTOR::~VECTOR
	npad	1
	lea	rcx, QWORD PTR TempQuat2$[rsp]
	call	??1QUAT@@QEAA@XZ			; QUAT::~QUAT
	npad	1
	lea	rcx, QWORD PTR TempQuat$[rsp]
	call	??1QUAT@@QEAA@XZ			; QUAT::~QUAT
	mov	rax, QWORD PTR __$ReturnUdt$[rsp]
; Line 228
	mov	rdi, rax
	mov	rcx, rsp
	lea	rdx, OFFSET FLAT:?GetXUnit@OBJECT@@QEAA?AVVECTOR@@XZ$rtcFrameData
	call	_RTC_CheckStackVars
	mov	rax, rdi
	add	rsp, 264				; 00000108H
	pop	rdi
	pop	rsi
	ret	0
?GetXUnit@OBJECT@@QEAA?AVVECTOR@@XZ ENDP		; OBJECT::GetXUnit
_TEXT	ENDS
; Function compile flags: /Odtp /RTCsu
text$x	SEGMENT
DirX$ = 48
DirY$ = 52
DirZ$ = 56
W$ = 60
X$ = 64
Y$ = 68
Z$ = 72
TempQuat$ = 88
TempQuat2$ = 136
Unit$ = 184
$T6 = 224
$T7 = 240
this$ = 288
__$ReturnUdt$ = 296
?dtor$0@?0??GetXUnit@OBJECT@@QEAA?AVVECTOR@@XZ@4HA PROC	; `OBJECT::GetXUnit'::`1'::dtor$0
	mov	QWORD PTR [rsp+8], rcx
	mov	QWORD PTR [rsp+16], rdx
	push	rbp
	push	rdi
	sub	rsp, 40					; 00000028H
	mov	rbp, rdx
	lea	rcx, QWORD PTR TempQuat$[rbp]
	call	??1QUAT@@QEAA@XZ			; QUAT::~QUAT
	add	rsp, 40					; 00000028H
	pop	rdi
	pop	rbp
	ret	0
?dtor$0@?0??GetXUnit@OBJECT@@QEAA?AVVECTOR@@XZ@4HA ENDP	; `OBJECT::GetXUnit'::`1'::dtor$0
text$x	ENDS
; Function compile flags: /Odtp /RTCsu
text$x	SEGMENT
DirX$ = 48
DirY$ = 52
DirZ$ = 56
W$ = 60
X$ = 64
Y$ = 68
Z$ = 72
TempQuat$ = 88
TempQuat2$ = 136
Unit$ = 184
$T6 = 224
$T7 = 240
this$ = 288
__$ReturnUdt$ = 296
?dtor$1@?0??GetXUnit@OBJECT@@QEAA?AVVECTOR@@XZ@4HA PROC	; `OBJECT::GetXUnit'::`1'::dtor$1
	mov	QWORD PTR [rsp+8], rcx
	mov	QWORD PTR [rsp+16], rdx
	push	rbp
	push	rdi
	sub	rsp, 40					; 00000028H
	mov	rbp, rdx
	lea	rcx, QWORD PTR TempQuat2$[rbp]
	call	??1QUAT@@QEAA@XZ			; QUAT::~QUAT
	add	rsp, 40					; 00000028H
	pop	rdi
	pop	rbp
	ret	0
?dtor$1@?0??GetXUnit@OBJECT@@QEAA?AVVECTOR@@XZ@4HA ENDP	; `OBJECT::GetXUnit'::`1'::dtor$1
text$x	ENDS
; Function compile flags: /Odtp /RTCsu
_TEXT	SEGMENT
DirX$ = 0
DirY$ = 4
DirZ$ = 8
W$ = 12
X$ = 16
Y$ = 20
Z$ = 24
this$ = 48
z$ = 56
?MoveZ@OBJECT@@QEAAXM@Z PROC				; OBJECT::MoveZ
; File D:\dev\cpp\40_BIM\01_AlanBaylis\cpp\OGLMDI2_VS2022\Build01\object.cpp
; Line 186
$LN3:
	movss	DWORD PTR [rsp+16], xmm1
	mov	QWORD PTR [rsp+8], rcx
	push	rdi
	sub	rsp, 32					; 00000020H
; Line 190
	mov	rax, QWORD PTR this$[rsp]
	movss	xmm0, DWORD PTR [rax+12]
	movss	DWORD PTR W$[rsp], xmm0
; Line 191
	mov	rax, QWORD PTR this$[rsp]
	movss	xmm0, DWORD PTR [rax]
	movss	DWORD PTR X$[rsp], xmm0
; Line 192
	mov	rax, QWORD PTR this$[rsp]
	movss	xmm0, DWORD PTR [rax+4]
	movss	DWORD PTR Y$[rsp], xmm0
; Line 193
	mov	rax, QWORD PTR this$[rsp]
	movss	xmm0, DWORD PTR [rax+8]
	movss	DWORD PTR Z$[rsp], xmm0
; Line 194
	movss	xmm0, DWORD PTR X$[rsp]
	mulss	xmm0, DWORD PTR Z$[rsp]
	movss	xmm1, DWORD PTR W$[rsp]
	mulss	xmm1, DWORD PTR Y$[rsp]
	subss	xmm0, xmm1
	cvtss2sd xmm0, xmm0
	movsd	xmm1, QWORD PTR __real@4000000000000000
	mulsd	xmm1, xmm0
	movaps	xmm0, xmm1
	cvtsd2ss xmm0, xmm0
	movss	DWORD PTR DirX$[rsp], xmm0
; Line 195
	movss	xmm0, DWORD PTR Y$[rsp]
	mulss	xmm0, DWORD PTR Z$[rsp]
	movss	xmm1, DWORD PTR W$[rsp]
	mulss	xmm1, DWORD PTR X$[rsp]
	addss	xmm0, xmm1
	cvtss2sd xmm0, xmm0
	movsd	xmm1, QWORD PTR __real@4000000000000000
	mulsd	xmm1, xmm0
	movaps	xmm0, xmm1
	cvtsd2ss xmm0, xmm0
	movss	DWORD PTR DirY$[rsp], xmm0
; Line 196
	movss	xmm0, DWORD PTR X$[rsp]
	mulss	xmm0, DWORD PTR X$[rsp]
	movss	xmm1, DWORD PTR Y$[rsp]
	mulss	xmm1, DWORD PTR Y$[rsp]
	addss	xmm0, xmm1
	cvtss2sd xmm0, xmm0
	movsd	xmm1, QWORD PTR __real@4000000000000000
	mulsd	xmm1, xmm0
	movaps	xmm0, xmm1
	movsd	xmm1, QWORD PTR __real@3ff0000000000000
	subsd	xmm1, xmm0
	movaps	xmm0, xmm1
	cvtsd2ss xmm0, xmm0
	movss	DWORD PTR DirZ$[rsp], xmm0
; Line 197
	movss	xmm0, DWORD PTR DirX$[rsp]
	mulss	xmm0, DWORD PTR z$[rsp]
	mov	rax, QWORD PTR this$[rsp]
	mulss	xmm0, DWORD PTR [rax+52]
	mov	rax, QWORD PTR this$[rsp]
	movss	xmm1, DWORD PTR [rax+16]
	addss	xmm1, xmm0
	movaps	xmm0, xmm1
	mov	rax, QWORD PTR this$[rsp]
	movss	DWORD PTR [rax+16], xmm0
; Line 198
	movss	xmm0, DWORD PTR DirY$[rsp]
	mulss	xmm0, DWORD PTR z$[rsp]
	mov	rax, QWORD PTR this$[rsp]
	mulss	xmm0, DWORD PTR [rax+52]
	mov	rax, QWORD PTR this$[rsp]
	movss	xmm1, DWORD PTR [rax+20]
	addss	xmm1, xmm0
	movaps	xmm0, xmm1
	mov	rax, QWORD PTR this$[rsp]
	movss	DWORD PTR [rax+20], xmm0
; Line 199
	movss	xmm0, DWORD PTR DirZ$[rsp]
	mulss	xmm0, DWORD PTR z$[rsp]
	mov	rax, QWORD PTR this$[rsp]
	mulss	xmm0, DWORD PTR [rax+52]
	mov	rax, QWORD PTR this$[rsp]
	movss	xmm1, DWORD PTR [rax+24]
	addss	xmm1, xmm0
	movaps	xmm0, xmm1
	mov	rax, QWORD PTR this$[rsp]
	movss	DWORD PTR [rax+24], xmm0
; Line 200
	add	rsp, 32					; 00000020H
	pop	rdi
	ret	0
?MoveZ@OBJECT@@QEAAXM@Z ENDP				; OBJECT::MoveZ
_TEXT	ENDS
; Function compile flags: /Odtp /RTCsu
_TEXT	SEGMENT
DirX$ = 48
DirY$ = 52
DirZ$ = 56
W$ = 60
X$ = 64
Y$ = 68
Z$ = 72
TempQuat$ = 88
TempQuat2$ = 136
$T5 = 176
this$ = 224
y$ = 232
?MoveY@OBJECT@@QEAAXM@Z PROC				; OBJECT::MoveY
; File D:\dev\cpp\40_BIM\01_AlanBaylis\cpp\OGLMDI2_VS2022\Build01\object.cpp
; Line 160
$LN5:
	movss	DWORD PTR [rsp+16], xmm1
	mov	QWORD PTR [rsp+8], rcx
	push	rsi
	push	rdi
	sub	rsp, 200				; 000000c8H
	lea	rdi, QWORD PTR [rsp+48]
	mov	ecx, 38					; 00000026H
	mov	eax, -858993460				; ccccccccH
	rep stosd
	mov	rcx, QWORD PTR [rsp+224]
; Line 164
	xorps	xmm0, xmm0
	movss	DWORD PTR W$[rsp], xmm0
; Line 165
	xorps	xmm0, xmm0
	movss	DWORD PTR X$[rsp], xmm0
; Line 166
	xorps	xmm0, xmm0
	movss	DWORD PTR Y$[rsp], xmm0
; Line 167
	xorps	xmm0, xmm0
	movss	DWORD PTR Z$[rsp], xmm0
; Line 168
	movss	xmm0, DWORD PTR __real@3f800000
	movss	DWORD PTR [rsp+32], xmm0
	xorps	xmm3, xmm3
	xorps	xmm2, xmm2
	xorps	xmm1, xmm1
	lea	rcx, QWORD PTR TempQuat$[rsp]
	call	??0QUAT@@QEAA@MMMM@Z			; QUAT::QUAT
	npad	1
; Line 169
	movss	xmm0, DWORD PTR __real@3f800000
	movss	DWORD PTR [rsp+32], xmm0
	xorps	xmm3, xmm3
	xorps	xmm2, xmm2
	xorps	xmm1, xmm1
	lea	rcx, QWORD PTR TempQuat2$[rsp]
	call	??0QUAT@@QEAA@MMMM@Z			; QUAT::QUAT
	npad	1
; Line 170
	lea	rax, QWORD PTR TempQuat$[rsp]
	mov	rdi, rax
	mov	rsi, QWORD PTR this$[rsp]
	mov	ecx, 16
	rep movsb
; Line 171
	movss	xmm0, DWORD PTR ?pi@@3MA		; pi
	divss	xmm0, DWORD PTR __real@43340000
	cvtss2sd xmm0, xmm0
	movsd	xmm1, QWORD PTR __real@4056800000000000
	mulsd	xmm1, xmm0
	movaps	xmm0, xmm1
	cvtsd2ss xmm0, xmm0
	xorps	xmm3, xmm3
	xorps	xmm2, xmm2
	movaps	xmm1, xmm0
	lea	rcx, QWORD PTR TempQuat2$[rsp]
	call	?EulerToQuat@QUAT@@QEAAXMMM@Z		; QUAT::EulerToQuat
; Line 172
	lea	rax, QWORD PTR $T5[rsp]
	lea	rcx, QWORD PTR TempQuat2$[rsp]
	mov	rdi, rax
	mov	rsi, rcx
	mov	ecx, 16
	rep movsb
	lea	rdx, QWORD PTR $T5[rsp]
	lea	rcx, QWORD PTR TempQuat$[rsp]
	call	?MultQuat@QUAT@@QEAAXV1@@Z		; QUAT::MultQuat
; Line 173
	movss	xmm0, DWORD PTR TempQuat$[rsp+12]
	movss	DWORD PTR W$[rsp], xmm0
; Line 174
	movss	xmm0, DWORD PTR TempQuat$[rsp]
	movss	DWORD PTR X$[rsp], xmm0
; Line 175
	movss	xmm0, DWORD PTR TempQuat$[rsp+4]
	movss	DWORD PTR Y$[rsp], xmm0
; Line 176
	movss	xmm0, DWORD PTR TempQuat$[rsp+8]
	movss	DWORD PTR Z$[rsp], xmm0
; Line 177
	movss	xmm0, DWORD PTR X$[rsp]
	mulss	xmm0, DWORD PTR Z$[rsp]
	movss	xmm1, DWORD PTR W$[rsp]
	mulss	xmm1, DWORD PTR Y$[rsp]
	subss	xmm0, xmm1
	cvtss2sd xmm0, xmm0
	movsd	xmm1, QWORD PTR __real@4000000000000000
	mulsd	xmm1, xmm0
	movaps	xmm0, xmm1
	cvtsd2ss xmm0, xmm0
	movss	DWORD PTR DirX$[rsp], xmm0
; Line 178
	movss	xmm0, DWORD PTR Y$[rsp]
	mulss	xmm0, DWORD PTR Z$[rsp]
	movss	xmm1, DWORD PTR W$[rsp]
	mulss	xmm1, DWORD PTR X$[rsp]
	addss	xmm0, xmm1
	cvtss2sd xmm0, xmm0
	movsd	xmm1, QWORD PTR __real@4000000000000000
	mulsd	xmm1, xmm0
	movaps	xmm0, xmm1
	cvtsd2ss xmm0, xmm0
	movss	DWORD PTR DirY$[rsp], xmm0
; Line 179
	movss	xmm0, DWORD PTR X$[rsp]
	mulss	xmm0, DWORD PTR X$[rsp]
	movss	xmm1, DWORD PTR Y$[rsp]
	mulss	xmm1, DWORD PTR Y$[rsp]
	addss	xmm0, xmm1
	cvtss2sd xmm0, xmm0
	movsd	xmm1, QWORD PTR __real@4000000000000000
	mulsd	xmm1, xmm0
	movaps	xmm0, xmm1
	movsd	xmm1, QWORD PTR __real@3ff0000000000000
	subsd	xmm1, xmm0
	movaps	xmm0, xmm1
	cvtsd2ss xmm0, xmm0
	movss	DWORD PTR DirZ$[rsp], xmm0
; Line 180
	movss	xmm0, DWORD PTR DirX$[rsp]
	mulss	xmm0, DWORD PTR y$[rsp]
	mov	rax, QWORD PTR this$[rsp]
	mulss	xmm0, DWORD PTR [rax+52]
	mov	rax, QWORD PTR this$[rsp]
	movss	xmm1, DWORD PTR [rax+16]
	addss	xmm1, xmm0
	movaps	xmm0, xmm1
	mov	rax, QWORD PTR this$[rsp]
	movss	DWORD PTR [rax+16], xmm0
; Line 181
	movss	xmm0, DWORD PTR DirY$[rsp]
	mulss	xmm0, DWORD PTR y$[rsp]
	mov	rax, QWORD PTR this$[rsp]
	mulss	xmm0, DWORD PTR [rax+52]
	mov	rax, QWORD PTR this$[rsp]
	movss	xmm1, DWORD PTR [rax+20]
	addss	xmm1, xmm0
	movaps	xmm0, xmm1
	mov	rax, QWORD PTR this$[rsp]
	movss	DWORD PTR [rax+20], xmm0
; Line 182
	movss	xmm0, DWORD PTR DirZ$[rsp]
	mulss	xmm0, DWORD PTR y$[rsp]
	mov	rax, QWORD PTR this$[rsp]
	mulss	xmm0, DWORD PTR [rax+52]
	mov	rax, QWORD PTR this$[rsp]
	movss	xmm1, DWORD PTR [rax+24]
	addss	xmm1, xmm0
	movaps	xmm0, xmm1
	mov	rax, QWORD PTR this$[rsp]
	movss	DWORD PTR [rax+24], xmm0
; Line 183
	lea	rcx, QWORD PTR TempQuat2$[rsp]
	call	??1QUAT@@QEAA@XZ			; QUAT::~QUAT
	npad	1
	lea	rcx, QWORD PTR TempQuat$[rsp]
	call	??1QUAT@@QEAA@XZ			; QUAT::~QUAT
	mov	rcx, rsp
	lea	rdx, OFFSET FLAT:?MoveY@OBJECT@@QEAAXM@Z$rtcFrameData
	call	_RTC_CheckStackVars
	add	rsp, 200				; 000000c8H
	pop	rdi
	pop	rsi
	ret	0
?MoveY@OBJECT@@QEAAXM@Z ENDP				; OBJECT::MoveY
_TEXT	ENDS
; Function compile flags: /Odtp /RTCsu
text$x	SEGMENT
DirX$ = 48
DirY$ = 52
DirZ$ = 56
W$ = 60
X$ = 64
Y$ = 68
Z$ = 72
TempQuat$ = 88
TempQuat2$ = 136
$T5 = 176
this$ = 224
y$ = 232
?dtor$0@?0??MoveY@OBJECT@@QEAAXM@Z@4HA PROC		; `OBJECT::MoveY'::`1'::dtor$0
	mov	QWORD PTR [rsp+8], rcx
	mov	QWORD PTR [rsp+16], rdx
	push	rbp
	push	rdi
	sub	rsp, 40					; 00000028H
	mov	rbp, rdx
	lea	rcx, QWORD PTR TempQuat$[rbp]
	call	??1QUAT@@QEAA@XZ			; QUAT::~QUAT
	add	rsp, 40					; 00000028H
	pop	rdi
	pop	rbp
	ret	0
?dtor$0@?0??MoveY@OBJECT@@QEAAXM@Z@4HA ENDP		; `OBJECT::MoveY'::`1'::dtor$0
text$x	ENDS
; Function compile flags: /Odtp /RTCsu
text$x	SEGMENT
DirX$ = 48
DirY$ = 52
DirZ$ = 56
W$ = 60
X$ = 64
Y$ = 68
Z$ = 72
TempQuat$ = 88
TempQuat2$ = 136
$T5 = 176
this$ = 224
y$ = 232
?dtor$1@?0??MoveY@OBJECT@@QEAAXM@Z@4HA PROC		; `OBJECT::MoveY'::`1'::dtor$1
	mov	QWORD PTR [rsp+8], rcx
	mov	QWORD PTR [rsp+16], rdx
	push	rbp
	push	rdi
	sub	rsp, 40					; 00000028H
	mov	rbp, rdx
	lea	rcx, QWORD PTR TempQuat2$[rbp]
	call	??1QUAT@@QEAA@XZ			; QUAT::~QUAT
	add	rsp, 40					; 00000028H
	pop	rdi
	pop	rbp
	ret	0
?dtor$1@?0??MoveY@OBJECT@@QEAAXM@Z@4HA ENDP		; `OBJECT::MoveY'::`1'::dtor$1
text$x	ENDS
; Function compile flags: /Odtp /RTCsu
_TEXT	SEGMENT
DirX$ = 48
DirY$ = 52
DirZ$ = 56
W$ = 60
X$ = 64
Y$ = 68
Z$ = 72
TempQuat$ = 88
TempQuat2$ = 136
$T5 = 176
this$ = 224
x$ = 232
?MoveX@OBJECT@@QEAAXM@Z PROC				; OBJECT::MoveX
; File D:\dev\cpp\40_BIM\01_AlanBaylis\cpp\OGLMDI2_VS2022\Build01\object.cpp
; Line 134
$LN5:
	movss	DWORD PTR [rsp+16], xmm1
	mov	QWORD PTR [rsp+8], rcx
	push	rsi
	push	rdi
	sub	rsp, 200				; 000000c8H
	lea	rdi, QWORD PTR [rsp+48]
	mov	ecx, 38					; 00000026H
	mov	eax, -858993460				; ccccccccH
	rep stosd
	mov	rcx, QWORD PTR [rsp+224]
; Line 138
	xorps	xmm0, xmm0
	movss	DWORD PTR W$[rsp], xmm0
; Line 139
	xorps	xmm0, xmm0
	movss	DWORD PTR X$[rsp], xmm0
; Line 140
	xorps	xmm0, xmm0
	movss	DWORD PTR Y$[rsp], xmm0
; Line 141
	xorps	xmm0, xmm0
	movss	DWORD PTR Z$[rsp], xmm0
; Line 142
	movss	xmm0, DWORD PTR __real@3f800000
	movss	DWORD PTR [rsp+32], xmm0
	xorps	xmm3, xmm3
	xorps	xmm2, xmm2
	xorps	xmm1, xmm1
	lea	rcx, QWORD PTR TempQuat$[rsp]
	call	??0QUAT@@QEAA@MMMM@Z			; QUAT::QUAT
	npad	1
; Line 143
	movss	xmm0, DWORD PTR __real@3f800000
	movss	DWORD PTR [rsp+32], xmm0
	xorps	xmm3, xmm3
	xorps	xmm2, xmm2
	xorps	xmm1, xmm1
	lea	rcx, QWORD PTR TempQuat2$[rsp]
	call	??0QUAT@@QEAA@MMMM@Z			; QUAT::QUAT
	npad	1
; Line 144
	lea	rax, QWORD PTR TempQuat$[rsp]
	mov	rdi, rax
	mov	rsi, QWORD PTR this$[rsp]
	mov	ecx, 16
	rep movsb
; Line 145
	movss	xmm0, DWORD PTR ?pi@@3MA		; pi
	divss	xmm0, DWORD PTR __real@43340000
	cvtss2sd xmm0, xmm0
	movsd	xmm1, QWORD PTR __real@c056800000000000
	mulsd	xmm1, xmm0
	movaps	xmm0, xmm1
	cvtsd2ss xmm0, xmm0
	xorps	xmm3, xmm3
	movaps	xmm2, xmm0
	xorps	xmm1, xmm1
	lea	rcx, QWORD PTR TempQuat2$[rsp]
	call	?EulerToQuat@QUAT@@QEAAXMMM@Z		; QUAT::EulerToQuat
; Line 146
	lea	rax, QWORD PTR $T5[rsp]
	lea	rcx, QWORD PTR TempQuat2$[rsp]
	mov	rdi, rax
	mov	rsi, rcx
	mov	ecx, 16
	rep movsb
	lea	rdx, QWORD PTR $T5[rsp]
	lea	rcx, QWORD PTR TempQuat$[rsp]
	call	?MultQuat@QUAT@@QEAAXV1@@Z		; QUAT::MultQuat
; Line 147
	movss	xmm0, DWORD PTR TempQuat$[rsp+12]
	movss	DWORD PTR W$[rsp], xmm0
; Line 148
	movss	xmm0, DWORD PTR TempQuat$[rsp]
	movss	DWORD PTR X$[rsp], xmm0
; Line 149
	movss	xmm0, DWORD PTR TempQuat$[rsp+4]
	movss	DWORD PTR Y$[rsp], xmm0
; Line 150
	movss	xmm0, DWORD PTR TempQuat$[rsp+8]
	movss	DWORD PTR Z$[rsp], xmm0
; Line 151
	movss	xmm0, DWORD PTR X$[rsp]
	mulss	xmm0, DWORD PTR Z$[rsp]
	movss	xmm1, DWORD PTR W$[rsp]
	mulss	xmm1, DWORD PTR Y$[rsp]
	subss	xmm0, xmm1
	cvtss2sd xmm0, xmm0
	movsd	xmm1, QWORD PTR __real@4000000000000000
	mulsd	xmm1, xmm0
	movaps	xmm0, xmm1
	cvtsd2ss xmm0, xmm0
	movss	DWORD PTR DirX$[rsp], xmm0
; Line 152
	movss	xmm0, DWORD PTR Y$[rsp]
	mulss	xmm0, DWORD PTR Z$[rsp]
	movss	xmm1, DWORD PTR W$[rsp]
	mulss	xmm1, DWORD PTR X$[rsp]
	addss	xmm0, xmm1
	cvtss2sd xmm0, xmm0
	movsd	xmm1, QWORD PTR __real@4000000000000000
	mulsd	xmm1, xmm0
	movaps	xmm0, xmm1
	cvtsd2ss xmm0, xmm0
	movss	DWORD PTR DirY$[rsp], xmm0
; Line 153
	movss	xmm0, DWORD PTR X$[rsp]
	mulss	xmm0, DWORD PTR X$[rsp]
	movss	xmm1, DWORD PTR Y$[rsp]
	mulss	xmm1, DWORD PTR Y$[rsp]
	addss	xmm0, xmm1
	cvtss2sd xmm0, xmm0
	movsd	xmm1, QWORD PTR __real@4000000000000000
	mulsd	xmm1, xmm0
	movaps	xmm0, xmm1
	movsd	xmm1, QWORD PTR __real@3ff0000000000000
	subsd	xmm1, xmm0
	movaps	xmm0, xmm1
	cvtsd2ss xmm0, xmm0
	movss	DWORD PTR DirZ$[rsp], xmm0
; Line 154
	movss	xmm0, DWORD PTR DirX$[rsp]
	mulss	xmm0, DWORD PTR x$[rsp]
	mov	rax, QWORD PTR this$[rsp]
	mulss	xmm0, DWORD PTR [rax+52]
	mov	rax, QWORD PTR this$[rsp]
	movss	xmm1, DWORD PTR [rax+16]
	addss	xmm1, xmm0
	movaps	xmm0, xmm1
	mov	rax, QWORD PTR this$[rsp]
	movss	DWORD PTR [rax+16], xmm0
; Line 155
	movss	xmm0, DWORD PTR DirY$[rsp]
	mulss	xmm0, DWORD PTR x$[rsp]
	mov	rax, QWORD PTR this$[rsp]
	mulss	xmm0, DWORD PTR [rax+52]
	mov	rax, QWORD PTR this$[rsp]
	movss	xmm1, DWORD PTR [rax+20]
	addss	xmm1, xmm0
	movaps	xmm0, xmm1
	mov	rax, QWORD PTR this$[rsp]
	movss	DWORD PTR [rax+20], xmm0
; Line 156
	movss	xmm0, DWORD PTR DirZ$[rsp]
	mulss	xmm0, DWORD PTR x$[rsp]
	mov	rax, QWORD PTR this$[rsp]
	mulss	xmm0, DWORD PTR [rax+52]
	mov	rax, QWORD PTR this$[rsp]
	movss	xmm1, DWORD PTR [rax+24]
	addss	xmm1, xmm0
	movaps	xmm0, xmm1
	mov	rax, QWORD PTR this$[rsp]
	movss	DWORD PTR [rax+24], xmm0
; Line 157
	lea	rcx, QWORD PTR TempQuat2$[rsp]
	call	??1QUAT@@QEAA@XZ			; QUAT::~QUAT
	npad	1
	lea	rcx, QWORD PTR TempQuat$[rsp]
	call	??1QUAT@@QEAA@XZ			; QUAT::~QUAT
	mov	rcx, rsp
	lea	rdx, OFFSET FLAT:?MoveX@OBJECT@@QEAAXM@Z$rtcFrameData
	call	_RTC_CheckStackVars
	add	rsp, 200				; 000000c8H
	pop	rdi
	pop	rsi
	ret	0
?MoveX@OBJECT@@QEAAXM@Z ENDP				; OBJECT::MoveX
_TEXT	ENDS
; Function compile flags: /Odtp /RTCsu
text$x	SEGMENT
DirX$ = 48
DirY$ = 52
DirZ$ = 56
W$ = 60
X$ = 64
Y$ = 68
Z$ = 72
TempQuat$ = 88
TempQuat2$ = 136
$T5 = 176
this$ = 224
x$ = 232
?dtor$0@?0??MoveX@OBJECT@@QEAAXM@Z@4HA PROC		; `OBJECT::MoveX'::`1'::dtor$0
	mov	QWORD PTR [rsp+8], rcx
	mov	QWORD PTR [rsp+16], rdx
	push	rbp
	push	rdi
	sub	rsp, 40					; 00000028H
	mov	rbp, rdx
	lea	rcx, QWORD PTR TempQuat$[rbp]
	call	??1QUAT@@QEAA@XZ			; QUAT::~QUAT
	add	rsp, 40					; 00000028H
	pop	rdi
	pop	rbp
	ret	0
?dtor$0@?0??MoveX@OBJECT@@QEAAXM@Z@4HA ENDP		; `OBJECT::MoveX'::`1'::dtor$0
text$x	ENDS
; Function compile flags: /Odtp /RTCsu
text$x	SEGMENT
DirX$ = 48
DirY$ = 52
DirZ$ = 56
W$ = 60
X$ = 64
Y$ = 68
Z$ = 72
TempQuat$ = 88
TempQuat2$ = 136
$T5 = 176
this$ = 224
x$ = 232
?dtor$1@?0??MoveX@OBJECT@@QEAAXM@Z@4HA PROC		; `OBJECT::MoveX'::`1'::dtor$1
	mov	QWORD PTR [rsp+8], rcx
	mov	QWORD PTR [rsp+16], rdx
	push	rbp
	push	rdi
	sub	rsp, 40					; 00000028H
	mov	rbp, rdx
	lea	rcx, QWORD PTR TempQuat2$[rbp]
	call	??1QUAT@@QEAA@XZ			; QUAT::~QUAT
	add	rsp, 40					; 00000028H
	pop	rdi
	pop	rbp
	ret	0
?dtor$1@?0??MoveX@OBJECT@@QEAAXM@Z@4HA ENDP		; `OBJECT::MoveX'::`1'::dtor$1
text$x	ENDS
; Function compile flags: /Odtp /RTCsu
_TEXT	SEGMENT
DirX$ = 0
DirY$ = 4
DirZ$ = 8
W$ = 12
X$ = 16
Y$ = 20
Z$ = 24
this$ = 48
?MoveZ@OBJECT@@QEAAXXZ PROC				; OBJECT::MoveZ
; File D:\dev\cpp\40_BIM\01_AlanBaylis\cpp\OGLMDI2_VS2022\Build01\object.cpp
; Line 117
$LN3:
	mov	QWORD PTR [rsp+8], rcx
	push	rdi
	sub	rsp, 32					; 00000020H
; Line 121
	mov	rax, QWORD PTR this$[rsp]
	movss	xmm0, DWORD PTR [rax+12]
	movss	DWORD PTR W$[rsp], xmm0
; Line 122
	mov	rax, QWORD PTR this$[rsp]
	movss	xmm0, DWORD PTR [rax]
	movss	DWORD PTR X$[rsp], xmm0
; Line 123
	mov	rax, QWORD PTR this$[rsp]
	movss	xmm0, DWORD PTR [rax+4]
	movss	DWORD PTR Y$[rsp], xmm0
; Line 124
	mov	rax, QWORD PTR this$[rsp]
	movss	xmm0, DWORD PTR [rax+8]
	movss	DWORD PTR Z$[rsp], xmm0
; Line 125
	movss	xmm0, DWORD PTR X$[rsp]
	mulss	xmm0, DWORD PTR Z$[rsp]
	movss	xmm1, DWORD PTR W$[rsp]
	mulss	xmm1, DWORD PTR Y$[rsp]
	subss	xmm0, xmm1
	cvtss2sd xmm0, xmm0
	movsd	xmm1, QWORD PTR __real@4000000000000000
	mulsd	xmm1, xmm0
	movaps	xmm0, xmm1
	cvtsd2ss xmm0, xmm0
	movss	DWORD PTR DirX$[rsp], xmm0
; Line 126
	movss	xmm0, DWORD PTR Y$[rsp]
	mulss	xmm0, DWORD PTR Z$[rsp]
	movss	xmm1, DWORD PTR W$[rsp]
	mulss	xmm1, DWORD PTR X$[rsp]
	addss	xmm0, xmm1
	cvtss2sd xmm0, xmm0
	movsd	xmm1, QWORD PTR __real@4000000000000000
	mulsd	xmm1, xmm0
	movaps	xmm0, xmm1
	cvtsd2ss xmm0, xmm0
	movss	DWORD PTR DirY$[rsp], xmm0
; Line 127
	movss	xmm0, DWORD PTR X$[rsp]
	mulss	xmm0, DWORD PTR X$[rsp]
	movss	xmm1, DWORD PTR Y$[rsp]
	mulss	xmm1, DWORD PTR Y$[rsp]
	addss	xmm0, xmm1
	cvtss2sd xmm0, xmm0
	movsd	xmm1, QWORD PTR __real@4000000000000000
	mulsd	xmm1, xmm0
	movaps	xmm0, xmm1
	movsd	xmm1, QWORD PTR __real@3ff0000000000000
	subsd	xmm1, xmm0
	movaps	xmm0, xmm1
	cvtsd2ss xmm0, xmm0
	movss	DWORD PTR DirZ$[rsp], xmm0
; Line 128
	mov	rax, QWORD PTR this$[rsp]
	movss	xmm0, DWORD PTR DirX$[rsp]
	mulss	xmm0, DWORD PTR [rax+48]
	mov	rax, QWORD PTR this$[rsp]
	mulss	xmm0, DWORD PTR [rax+52]
	mov	rax, QWORD PTR this$[rsp]
	movss	xmm1, DWORD PTR [rax+16]
	addss	xmm1, xmm0
	movaps	xmm0, xmm1
	mov	rax, QWORD PTR this$[rsp]
	movss	DWORD PTR [rax+16], xmm0
; Line 129
	mov	rax, QWORD PTR this$[rsp]
	movss	xmm0, DWORD PTR DirY$[rsp]
	mulss	xmm0, DWORD PTR [rax+48]
	mov	rax, QWORD PTR this$[rsp]
	mulss	xmm0, DWORD PTR [rax+52]
	mov	rax, QWORD PTR this$[rsp]
	movss	xmm1, DWORD PTR [rax+20]
	addss	xmm1, xmm0
	movaps	xmm0, xmm1
	mov	rax, QWORD PTR this$[rsp]
	movss	DWORD PTR [rax+20], xmm0
; Line 130
	mov	rax, QWORD PTR this$[rsp]
	movss	xmm0, DWORD PTR DirZ$[rsp]
	mulss	xmm0, DWORD PTR [rax+48]
	mov	rax, QWORD PTR this$[rsp]
	mulss	xmm0, DWORD PTR [rax+52]
	mov	rax, QWORD PTR this$[rsp]
	movss	xmm1, DWORD PTR [rax+24]
	addss	xmm1, xmm0
	movaps	xmm0, xmm1
	mov	rax, QWORD PTR this$[rsp]
	movss	DWORD PTR [rax+24], xmm0
; Line 131
	add	rsp, 32					; 00000020H
	pop	rdi
	ret	0
?MoveZ@OBJECT@@QEAAXXZ ENDP				; OBJECT::MoveZ
_TEXT	ENDS
; Function compile flags: /Odtp /RTCsu
_TEXT	SEGMENT
DirX$ = 48
DirY$ = 52
DirZ$ = 56
W$ = 60
X$ = 64
Y$ = 68
Z$ = 72
TempQuat$ = 88
TempQuat2$ = 136
$T5 = 176
this$ = 224
?MoveY@OBJECT@@QEAAXXZ PROC				; OBJECT::MoveY
; File D:\dev\cpp\40_BIM\01_AlanBaylis\cpp\OGLMDI2_VS2022\Build01\object.cpp
; Line 91
$LN5:
	mov	QWORD PTR [rsp+8], rcx
	push	rsi
	push	rdi
	sub	rsp, 200				; 000000c8H
	lea	rdi, QWORD PTR [rsp+48]
	mov	ecx, 38					; 00000026H
	mov	eax, -858993460				; ccccccccH
	rep stosd
	mov	rcx, QWORD PTR [rsp+224]
; Line 95
	xorps	xmm0, xmm0
	movss	DWORD PTR W$[rsp], xmm0
; Line 96
	xorps	xmm0, xmm0
	movss	DWORD PTR X$[rsp], xmm0
; Line 97
	xorps	xmm0, xmm0
	movss	DWORD PTR Y$[rsp], xmm0
; Line 98
	xorps	xmm0, xmm0
	movss	DWORD PTR Z$[rsp], xmm0
; Line 99
	movss	xmm0, DWORD PTR __real@3f800000
	movss	DWORD PTR [rsp+32], xmm0
	xorps	xmm3, xmm3
	xorps	xmm2, xmm2
	xorps	xmm1, xmm1
	lea	rcx, QWORD PTR TempQuat$[rsp]
	call	??0QUAT@@QEAA@MMMM@Z			; QUAT::QUAT
	npad	1
; Line 100
	movss	xmm0, DWORD PTR __real@3f800000
	movss	DWORD PTR [rsp+32], xmm0
	xorps	xmm3, xmm3
	xorps	xmm2, xmm2
	xorps	xmm1, xmm1
	lea	rcx, QWORD PTR TempQuat2$[rsp]
	call	??0QUAT@@QEAA@MMMM@Z			; QUAT::QUAT
	npad	1
; Line 101
	lea	rax, QWORD PTR TempQuat$[rsp]
	mov	rdi, rax
	mov	rsi, QWORD PTR this$[rsp]
	mov	ecx, 16
	rep movsb
; Line 102
	movss	xmm0, DWORD PTR ?pi@@3MA		; pi
	divss	xmm0, DWORD PTR __real@43340000
	cvtss2sd xmm0, xmm0
	movsd	xmm1, QWORD PTR __real@4056800000000000
	mulsd	xmm1, xmm0
	movaps	xmm0, xmm1
	cvtsd2ss xmm0, xmm0
	xorps	xmm3, xmm3
	xorps	xmm2, xmm2
	movaps	xmm1, xmm0
	lea	rcx, QWORD PTR TempQuat2$[rsp]
	call	?EulerToQuat@QUAT@@QEAAXMMM@Z		; QUAT::EulerToQuat
; Line 103
	lea	rax, QWORD PTR $T5[rsp]
	lea	rcx, QWORD PTR TempQuat2$[rsp]
	mov	rdi, rax
	mov	rsi, rcx
	mov	ecx, 16
	rep movsb
	lea	rdx, QWORD PTR $T5[rsp]
	lea	rcx, QWORD PTR TempQuat$[rsp]
	call	?MultQuat@QUAT@@QEAAXV1@@Z		; QUAT::MultQuat
; Line 104
	movss	xmm0, DWORD PTR TempQuat$[rsp+12]
	movss	DWORD PTR W$[rsp], xmm0
; Line 105
	movss	xmm0, DWORD PTR TempQuat$[rsp]
	movss	DWORD PTR X$[rsp], xmm0
; Line 106
	movss	xmm0, DWORD PTR TempQuat$[rsp+4]
	movss	DWORD PTR Y$[rsp], xmm0
; Line 107
	movss	xmm0, DWORD PTR TempQuat$[rsp+8]
	movss	DWORD PTR Z$[rsp], xmm0
; Line 108
	movss	xmm0, DWORD PTR X$[rsp]
	mulss	xmm0, DWORD PTR Z$[rsp]
	movss	xmm1, DWORD PTR W$[rsp]
	mulss	xmm1, DWORD PTR Y$[rsp]
	subss	xmm0, xmm1
	cvtss2sd xmm0, xmm0
	movsd	xmm1, QWORD PTR __real@4000000000000000
	mulsd	xmm1, xmm0
	movaps	xmm0, xmm1
	cvtsd2ss xmm0, xmm0
	movss	DWORD PTR DirX$[rsp], xmm0
; Line 109
	movss	xmm0, DWORD PTR Y$[rsp]
	mulss	xmm0, DWORD PTR Z$[rsp]
	movss	xmm1, DWORD PTR W$[rsp]
	mulss	xmm1, DWORD PTR X$[rsp]
	addss	xmm0, xmm1
	cvtss2sd xmm0, xmm0
	movsd	xmm1, QWORD PTR __real@4000000000000000
	mulsd	xmm1, xmm0
	movaps	xmm0, xmm1
	cvtsd2ss xmm0, xmm0
	movss	DWORD PTR DirY$[rsp], xmm0
; Line 110
	movss	xmm0, DWORD PTR X$[rsp]
	mulss	xmm0, DWORD PTR X$[rsp]
	movss	xmm1, DWORD PTR Y$[rsp]
	mulss	xmm1, DWORD PTR Y$[rsp]
	addss	xmm0, xmm1
	cvtss2sd xmm0, xmm0
	movsd	xmm1, QWORD PTR __real@4000000000000000
	mulsd	xmm1, xmm0
	movaps	xmm0, xmm1
	movsd	xmm1, QWORD PTR __real@3ff0000000000000
	subsd	xmm1, xmm0
	movaps	xmm0, xmm1
	cvtsd2ss xmm0, xmm0
	movss	DWORD PTR DirZ$[rsp], xmm0
; Line 111
	mov	rax, QWORD PTR this$[rsp]
	movss	xmm0, DWORD PTR DirX$[rsp]
	mulss	xmm0, DWORD PTR [rax+44]
	mov	rax, QWORD PTR this$[rsp]
	mulss	xmm0, DWORD PTR [rax+52]
	mov	rax, QWORD PTR this$[rsp]
	movss	xmm1, DWORD PTR [rax+16]
	addss	xmm1, xmm0
	movaps	xmm0, xmm1
	mov	rax, QWORD PTR this$[rsp]
	movss	DWORD PTR [rax+16], xmm0
; Line 112
	mov	rax, QWORD PTR this$[rsp]
	movss	xmm0, DWORD PTR DirY$[rsp]
	mulss	xmm0, DWORD PTR [rax+44]
	mov	rax, QWORD PTR this$[rsp]
	mulss	xmm0, DWORD PTR [rax+52]
	mov	rax, QWORD PTR this$[rsp]
	movss	xmm1, DWORD PTR [rax+20]
	addss	xmm1, xmm0
	movaps	xmm0, xmm1
	mov	rax, QWORD PTR this$[rsp]
	movss	DWORD PTR [rax+20], xmm0
; Line 113
	mov	rax, QWORD PTR this$[rsp]
	movss	xmm0, DWORD PTR DirZ$[rsp]
	mulss	xmm0, DWORD PTR [rax+44]
	mov	rax, QWORD PTR this$[rsp]
	mulss	xmm0, DWORD PTR [rax+52]
	mov	rax, QWORD PTR this$[rsp]
	movss	xmm1, DWORD PTR [rax+24]
	addss	xmm1, xmm0
	movaps	xmm0, xmm1
	mov	rax, QWORD PTR this$[rsp]
	movss	DWORD PTR [rax+24], xmm0
; Line 114
	lea	rcx, QWORD PTR TempQuat2$[rsp]
	call	??1QUAT@@QEAA@XZ			; QUAT::~QUAT
	npad	1
	lea	rcx, QWORD PTR TempQuat$[rsp]
	call	??1QUAT@@QEAA@XZ			; QUAT::~QUAT
	mov	rcx, rsp
	lea	rdx, OFFSET FLAT:?MoveY@OBJECT@@QEAAXXZ$rtcFrameData
	call	_RTC_CheckStackVars
	add	rsp, 200				; 000000c8H
	pop	rdi
	pop	rsi
	ret	0
?MoveY@OBJECT@@QEAAXXZ ENDP				; OBJECT::MoveY
_TEXT	ENDS
; Function compile flags: /Odtp /RTCsu
text$x	SEGMENT
DirX$ = 48
DirY$ = 52
DirZ$ = 56
W$ = 60
X$ = 64
Y$ = 68
Z$ = 72
TempQuat$ = 88
TempQuat2$ = 136
$T5 = 176
this$ = 224
?dtor$0@?0??MoveY@OBJECT@@QEAAXXZ@4HA PROC		; `OBJECT::MoveY'::`1'::dtor$0
	mov	QWORD PTR [rsp+8], rcx
	mov	QWORD PTR [rsp+16], rdx
	push	rbp
	push	rdi
	sub	rsp, 40					; 00000028H
	mov	rbp, rdx
	lea	rcx, QWORD PTR TempQuat$[rbp]
	call	??1QUAT@@QEAA@XZ			; QUAT::~QUAT
	add	rsp, 40					; 00000028H
	pop	rdi
	pop	rbp
	ret	0
?dtor$0@?0??MoveY@OBJECT@@QEAAXXZ@4HA ENDP		; `OBJECT::MoveY'::`1'::dtor$0
text$x	ENDS
; Function compile flags: /Odtp /RTCsu
text$x	SEGMENT
DirX$ = 48
DirY$ = 52
DirZ$ = 56
W$ = 60
X$ = 64
Y$ = 68
Z$ = 72
TempQuat$ = 88
TempQuat2$ = 136
$T5 = 176
this$ = 224
?dtor$1@?0??MoveY@OBJECT@@QEAAXXZ@4HA PROC		; `OBJECT::MoveY'::`1'::dtor$1
	mov	QWORD PTR [rsp+8], rcx
	mov	QWORD PTR [rsp+16], rdx
	push	rbp
	push	rdi
	sub	rsp, 40					; 00000028H
	mov	rbp, rdx
	lea	rcx, QWORD PTR TempQuat2$[rbp]
	call	??1QUAT@@QEAA@XZ			; QUAT::~QUAT
	add	rsp, 40					; 00000028H
	pop	rdi
	pop	rbp
	ret	0
?dtor$1@?0??MoveY@OBJECT@@QEAAXXZ@4HA ENDP		; `OBJECT::MoveY'::`1'::dtor$1
text$x	ENDS
; Function compile flags: /Odtp /RTCsu
_TEXT	SEGMENT
DirX$ = 48
DirY$ = 52
DirZ$ = 56
W$ = 60
X$ = 64
Y$ = 68
Z$ = 72
TempQuat$ = 88
TempQuat2$ = 136
$T5 = 176
this$ = 224
?MoveX@OBJECT@@QEAAXXZ PROC				; OBJECT::MoveX
; File D:\dev\cpp\40_BIM\01_AlanBaylis\cpp\OGLMDI2_VS2022\Build01\object.cpp
; Line 65
$LN5:
	mov	QWORD PTR [rsp+8], rcx
	push	rsi
	push	rdi
	sub	rsp, 200				; 000000c8H
	lea	rdi, QWORD PTR [rsp+48]
	mov	ecx, 38					; 00000026H
	mov	eax, -858993460				; ccccccccH
	rep stosd
	mov	rcx, QWORD PTR [rsp+224]
; Line 69
	xorps	xmm0, xmm0
	movss	DWORD PTR W$[rsp], xmm0
; Line 70
	xorps	xmm0, xmm0
	movss	DWORD PTR X$[rsp], xmm0
; Line 71
	xorps	xmm0, xmm0
	movss	DWORD PTR Y$[rsp], xmm0
; Line 72
	xorps	xmm0, xmm0
	movss	DWORD PTR Z$[rsp], xmm0
; Line 73
	movss	xmm0, DWORD PTR __real@3f800000
	movss	DWORD PTR [rsp+32], xmm0
	xorps	xmm3, xmm3
	xorps	xmm2, xmm2
	xorps	xmm1, xmm1
	lea	rcx, QWORD PTR TempQuat$[rsp]
	call	??0QUAT@@QEAA@MMMM@Z			; QUAT::QUAT
	npad	1
; Line 74
	movss	xmm0, DWORD PTR __real@3f800000
	movss	DWORD PTR [rsp+32], xmm0
	xorps	xmm3, xmm3
	xorps	xmm2, xmm2
	xorps	xmm1, xmm1
	lea	rcx, QWORD PTR TempQuat2$[rsp]
	call	??0QUAT@@QEAA@MMMM@Z			; QUAT::QUAT
	npad	1
; Line 75
	lea	rax, QWORD PTR TempQuat$[rsp]
	mov	rdi, rax
	mov	rsi, QWORD PTR this$[rsp]
	mov	ecx, 16
	rep movsb
; Line 76
	movss	xmm0, DWORD PTR ?pi@@3MA		; pi
	divss	xmm0, DWORD PTR __real@43340000
	cvtss2sd xmm0, xmm0
	movsd	xmm1, QWORD PTR __real@c056800000000000
	mulsd	xmm1, xmm0
	movaps	xmm0, xmm1
	cvtsd2ss xmm0, xmm0
	xorps	xmm3, xmm3
	movaps	xmm2, xmm0
	xorps	xmm1, xmm1
	lea	rcx, QWORD PTR TempQuat2$[rsp]
	call	?EulerToQuat@QUAT@@QEAAXMMM@Z		; QUAT::EulerToQuat
; Line 77
	lea	rax, QWORD PTR $T5[rsp]
	lea	rcx, QWORD PTR TempQuat2$[rsp]
	mov	rdi, rax
	mov	rsi, rcx
	mov	ecx, 16
	rep movsb
	lea	rdx, QWORD PTR $T5[rsp]
	lea	rcx, QWORD PTR TempQuat$[rsp]
	call	?MultQuat@QUAT@@QEAAXV1@@Z		; QUAT::MultQuat
; Line 78
	movss	xmm0, DWORD PTR TempQuat$[rsp+12]
	movss	DWORD PTR W$[rsp], xmm0
; Line 79
	movss	xmm0, DWORD PTR TempQuat$[rsp]
	movss	DWORD PTR X$[rsp], xmm0
; Line 80
	movss	xmm0, DWORD PTR TempQuat$[rsp+4]
	movss	DWORD PTR Y$[rsp], xmm0
; Line 81
	movss	xmm0, DWORD PTR TempQuat$[rsp+8]
	movss	DWORD PTR Z$[rsp], xmm0
; Line 82
	movss	xmm0, DWORD PTR X$[rsp]
	mulss	xmm0, DWORD PTR Z$[rsp]
	movss	xmm1, DWORD PTR W$[rsp]
	mulss	xmm1, DWORD PTR Y$[rsp]
	subss	xmm0, xmm1
	cvtss2sd xmm0, xmm0
	movsd	xmm1, QWORD PTR __real@4000000000000000
	mulsd	xmm1, xmm0
	movaps	xmm0, xmm1
	cvtsd2ss xmm0, xmm0
	movss	DWORD PTR DirX$[rsp], xmm0
; Line 83
	movss	xmm0, DWORD PTR Y$[rsp]
	mulss	xmm0, DWORD PTR Z$[rsp]
	movss	xmm1, DWORD PTR W$[rsp]
	mulss	xmm1, DWORD PTR X$[rsp]
	addss	xmm0, xmm1
	cvtss2sd xmm0, xmm0
	movsd	xmm1, QWORD PTR __real@4000000000000000
	mulsd	xmm1, xmm0
	movaps	xmm0, xmm1
	cvtsd2ss xmm0, xmm0
	movss	DWORD PTR DirY$[rsp], xmm0
; Line 84
	movss	xmm0, DWORD PTR X$[rsp]
	mulss	xmm0, DWORD PTR X$[rsp]
	movss	xmm1, DWORD PTR Y$[rsp]
	mulss	xmm1, DWORD PTR Y$[rsp]
	addss	xmm0, xmm1
	cvtss2sd xmm0, xmm0
	movsd	xmm1, QWORD PTR __real@4000000000000000
	mulsd	xmm1, xmm0
	movaps	xmm0, xmm1
	movsd	xmm1, QWORD PTR __real@3ff0000000000000
	subsd	xmm1, xmm0
	movaps	xmm0, xmm1
	cvtsd2ss xmm0, xmm0
	movss	DWORD PTR DirZ$[rsp], xmm0
; Line 85
	mov	rax, QWORD PTR this$[rsp]
	movss	xmm0, DWORD PTR DirX$[rsp]
	mulss	xmm0, DWORD PTR [rax+40]
	mov	rax, QWORD PTR this$[rsp]
	mulss	xmm0, DWORD PTR [rax+52]
	mov	rax, QWORD PTR this$[rsp]
	movss	xmm1, DWORD PTR [rax+16]
	addss	xmm1, xmm0
	movaps	xmm0, xmm1
	mov	rax, QWORD PTR this$[rsp]
	movss	DWORD PTR [rax+16], xmm0
; Line 86
	mov	rax, QWORD PTR this$[rsp]
	movss	xmm0, DWORD PTR DirY$[rsp]
	mulss	xmm0, DWORD PTR [rax+40]
	mov	rax, QWORD PTR this$[rsp]
	mulss	xmm0, DWORD PTR [rax+52]
	mov	rax, QWORD PTR this$[rsp]
	movss	xmm1, DWORD PTR [rax+20]
	addss	xmm1, xmm0
	movaps	xmm0, xmm1
	mov	rax, QWORD PTR this$[rsp]
	movss	DWORD PTR [rax+20], xmm0
; Line 87
	mov	rax, QWORD PTR this$[rsp]
	movss	xmm0, DWORD PTR DirZ$[rsp]
	mulss	xmm0, DWORD PTR [rax+40]
	mov	rax, QWORD PTR this$[rsp]
	mulss	xmm0, DWORD PTR [rax+52]
	mov	rax, QWORD PTR this$[rsp]
	movss	xmm1, DWORD PTR [rax+24]
	addss	xmm1, xmm0
	movaps	xmm0, xmm1
	mov	rax, QWORD PTR this$[rsp]
	movss	DWORD PTR [rax+24], xmm0
; Line 88
	lea	rcx, QWORD PTR TempQuat2$[rsp]
	call	??1QUAT@@QEAA@XZ			; QUAT::~QUAT
	npad	1
	lea	rcx, QWORD PTR TempQuat$[rsp]
	call	??1QUAT@@QEAA@XZ			; QUAT::~QUAT
	mov	rcx, rsp
	lea	rdx, OFFSET FLAT:?MoveX@OBJECT@@QEAAXXZ$rtcFrameData
	call	_RTC_CheckStackVars
	add	rsp, 200				; 000000c8H
	pop	rdi
	pop	rsi
	ret	0
?MoveX@OBJECT@@QEAAXXZ ENDP				; OBJECT::MoveX
_TEXT	ENDS
; Function compile flags: /Odtp /RTCsu
text$x	SEGMENT
DirX$ = 48
DirY$ = 52
DirZ$ = 56
W$ = 60
X$ = 64
Y$ = 68
Z$ = 72
TempQuat$ = 88
TempQuat2$ = 136
$T5 = 176
this$ = 224
?dtor$0@?0??MoveX@OBJECT@@QEAAXXZ@4HA PROC		; `OBJECT::MoveX'::`1'::dtor$0
	mov	QWORD PTR [rsp+8], rcx
	mov	QWORD PTR [rsp+16], rdx
	push	rbp
	push	rdi
	sub	rsp, 40					; 00000028H
	mov	rbp, rdx
	lea	rcx, QWORD PTR TempQuat$[rbp]
	call	??1QUAT@@QEAA@XZ			; QUAT::~QUAT
	add	rsp, 40					; 00000028H
	pop	rdi
	pop	rbp
	ret	0
?dtor$0@?0??MoveX@OBJECT@@QEAAXXZ@4HA ENDP		; `OBJECT::MoveX'::`1'::dtor$0
text$x	ENDS
; Function compile flags: /Odtp /RTCsu
text$x	SEGMENT
DirX$ = 48
DirY$ = 52
DirZ$ = 56
W$ = 60
X$ = 64
Y$ = 68
Z$ = 72
TempQuat$ = 88
TempQuat2$ = 136
$T5 = 176
this$ = 224
?dtor$1@?0??MoveX@OBJECT@@QEAAXXZ@4HA PROC		; `OBJECT::MoveX'::`1'::dtor$1
	mov	QWORD PTR [rsp+8], rcx
	mov	QWORD PTR [rsp+16], rdx
	push	rbp
	push	rdi
	sub	rsp, 40					; 00000028H
	mov	rbp, rdx
	lea	rcx, QWORD PTR TempQuat2$[rbp]
	call	??1QUAT@@QEAA@XZ			; QUAT::~QUAT
	add	rsp, 40					; 00000028H
	pop	rdi
	pop	rbp
	ret	0
?dtor$1@?0??MoveX@OBJECT@@QEAAXXZ@4HA ENDP		; `OBJECT::MoveX'::`1'::dtor$1
text$x	ENDS
; Function compile flags: /Odtp /RTCsu
_TEXT	SEGMENT
this$ = 48
x$ = 56
y$ = 64
z$ = 72
?UpdatePosition@OBJECT@@QEAAXMMM@Z PROC			; OBJECT::UpdatePosition
; File D:\dev\cpp\40_BIM\01_AlanBaylis\cpp\OGLMDI2_VS2022\Build01\object.cpp
; Line 55
$LN9:
	movss	DWORD PTR [rsp+32], xmm3
	movss	DWORD PTR [rsp+24], xmm2
	movss	DWORD PTR [rsp+16], xmm1
	mov	QWORD PTR [rsp+8], rcx
	push	rdi
	sub	rsp, 32					; 00000020H
; Line 56
	movss	xmm0, DWORD PTR x$[rsp]
	ucomiss	xmm0, DWORD PTR __real@00000000
	jp	SHORT $LN8@UpdatePosi
	je	SHORT $LN2@UpdatePosi
$LN8@UpdatePosi:
; Line 57
	movss	xmm1, DWORD PTR x$[rsp]
	mov	rcx, QWORD PTR this$[rsp]
	call	?MoveX@OBJECT@@QEAAXM@Z			; OBJECT::MoveX
$LN2@UpdatePosi:
; Line 58
	movss	xmm0, DWORD PTR y$[rsp]
	ucomiss	xmm0, DWORD PTR __real@00000000
	jp	SHORT $LN7@UpdatePosi
	je	SHORT $LN3@UpdatePosi
$LN7@UpdatePosi:
; Line 59
	movss	xmm1, DWORD PTR y$[rsp]
	mov	rcx, QWORD PTR this$[rsp]
	call	?MoveY@OBJECT@@QEAAXM@Z			; OBJECT::MoveY
$LN3@UpdatePosi:
; Line 60
	movss	xmm0, DWORD PTR z$[rsp]
	ucomiss	xmm0, DWORD PTR __real@00000000
	jp	SHORT $LN6@UpdatePosi
	je	SHORT $LN4@UpdatePosi
$LN6@UpdatePosi:
; Line 61
	movss	xmm1, DWORD PTR z$[rsp]
	mov	rcx, QWORD PTR this$[rsp]
	call	?MoveZ@OBJECT@@QEAAXM@Z			; OBJECT::MoveZ
$LN4@UpdatePosi:
; Line 62
	add	rsp, 32					; 00000020H
	pop	rdi
	ret	0
?UpdatePosition@OBJECT@@QEAAXMMM@Z ENDP			; OBJECT::UpdatePosition
_TEXT	ENDS
; Function compile flags: /Odtp /RTCsu
_TEXT	SEGMENT
this$ = 48
?UpdatePosition@OBJECT@@QEAAXXZ PROC			; OBJECT::UpdatePosition
; File D:\dev\cpp\40_BIM\01_AlanBaylis\cpp\OGLMDI2_VS2022\Build01\object.cpp
; Line 41
$LN9:
	mov	QWORD PTR [rsp+8], rcx
	push	rdi
	sub	rsp, 32					; 00000020H
; Line 42
	mov	rax, QWORD PTR this$[rsp]
	movss	xmm0, DWORD PTR [rax+40]
	ucomiss	xmm0, DWORD PTR __real@00000000
	jp	SHORT $LN8@UpdatePosi
	je	SHORT $LN2@UpdatePosi
$LN8@UpdatePosi:
; Line 43
	mov	rcx, QWORD PTR this$[rsp]
	call	?MoveX@OBJECT@@QEAAXXZ			; OBJECT::MoveX
$LN2@UpdatePosi:
; Line 44
	mov	rax, QWORD PTR this$[rsp]
	movss	xmm0, DWORD PTR [rax+44]
	ucomiss	xmm0, DWORD PTR __real@00000000
	jp	SHORT $LN7@UpdatePosi
	je	SHORT $LN3@UpdatePosi
$LN7@UpdatePosi:
; Line 45
	mov	rcx, QWORD PTR this$[rsp]
	call	?MoveY@OBJECT@@QEAAXXZ			; OBJECT::MoveY
$LN3@UpdatePosi:
; Line 46
	mov	rax, QWORD PTR this$[rsp]
	movss	xmm0, DWORD PTR [rax+48]
	ucomiss	xmm0, DWORD PTR __real@00000000
	jp	SHORT $LN6@UpdatePosi
	je	SHORT $LN4@UpdatePosi
$LN6@UpdatePosi:
; Line 47
	mov	rcx, QWORD PTR this$[rsp]
	call	?MoveZ@OBJECT@@QEAAXXZ			; OBJECT::MoveZ
$LN4@UpdatePosi:
; Line 49
	mov	rax, QWORD PTR this$[rsp]
	xorps	xmm0, xmm0
	movss	DWORD PTR [rax+40], xmm0
; Line 50
	mov	rax, QWORD PTR this$[rsp]
	xorps	xmm0, xmm0
	movss	DWORD PTR [rax+44], xmm0
; Line 51
	mov	rax, QWORD PTR this$[rsp]
	xorps	xmm0, xmm0
	movss	DWORD PTR [rax+48], xmm0
; Line 52
	add	rsp, 32					; 00000020H
	pop	rdi
	ret	0
?UpdatePosition@OBJECT@@QEAAXXZ ENDP			; OBJECT::UpdatePosition
_TEXT	ENDS
; Function compile flags: /Odtp /RTCsu
_TEXT	SEGMENT
this$ = 16
?Draw@OBJECT@@QEAAXXZ PROC				; OBJECT::Draw
; File D:\dev\cpp\40_BIM\01_AlanBaylis\cpp\OGLMDI2_VS2022\Build01\object.cpp
; Line 36
$LN3:
	mov	QWORD PTR [rsp+8], rcx
	push	rdi
; Line 38
	pop	rdi
	ret	0
?Draw@OBJECT@@QEAAXXZ ENDP				; OBJECT::Draw
_TEXT	ENDS
; Function compile flags: /Odtp /RTCsu
_TEXT	SEGMENT
temp_quat$ = 56
$T4 = 96
tv85 = 112
this$ = 160
?Rotate@OBJECT@@QEAAXXZ PROC				; OBJECT::Rotate
; File D:\dev\cpp\40_BIM\01_AlanBaylis\cpp\OGLMDI2_VS2022\Build01\object.cpp
; Line 29
$LN4:
	mov	QWORD PTR [rsp+8], rcx
	push	rsi
	push	rdi
	sub	rsp, 136				; 00000088H
	lea	rdi, QWORD PTR [rsp+48]
	mov	ecx, 22
	mov	eax, -858993460				; ccccccccH
	rep stosd
	mov	rcx, QWORD PTR [rsp+160]
; Line 30
	movss	xmm0, DWORD PTR __real@3f800000
	movss	DWORD PTR [rsp+32], xmm0
	xorps	xmm3, xmm3
	xorps	xmm2, xmm2
	xorps	xmm1, xmm1
	lea	rcx, QWORD PTR temp_quat$[rsp]
	call	??0QUAT@@QEAA@MMMM@Z			; QUAT::QUAT
	npad	1
; Line 31
	mov	rax, QWORD PTR this$[rsp]
	movss	xmm0, DWORD PTR [rax+36]
	mulss	xmm0, DWORD PTR ?radians@@3MA		; radians
	mov	rax, QWORD PTR this$[rsp]
	mulss	xmm0, DWORD PTR [rax+52]
	mov	rax, QWORD PTR this$[rsp]
	movss	xmm1, DWORD PTR [rax+32]
	mulss	xmm1, DWORD PTR ?radians@@3MA		; radians
	mov	rax, QWORD PTR this$[rsp]
	mulss	xmm1, DWORD PTR [rax+52]
	mov	rax, QWORD PTR this$[rsp]
	movss	xmm2, DWORD PTR [rax+28]
	mulss	xmm2, DWORD PTR ?radians@@3MA		; radians
	mov	rax, QWORD PTR this$[rsp]
	mulss	xmm2, DWORD PTR [rax+52]
	movss	DWORD PTR tv85[rsp], xmm2
	movaps	xmm3, xmm0
	movaps	xmm2, xmm1
	movss	xmm0, DWORD PTR tv85[rsp]
	movaps	xmm1, xmm0
	lea	rcx, QWORD PTR temp_quat$[rsp]
	call	?EulerToQuat@QUAT@@QEAAXMMM@Z		; QUAT::EulerToQuat
; Line 32
	lea	rax, QWORD PTR $T4[rsp]
	lea	rcx, QWORD PTR temp_quat$[rsp]
	mov	rdi, rax
	mov	rsi, rcx
	mov	ecx, 16
	rep movsb
	mov	rax, QWORD PTR this$[rsp]
	lea	rdx, QWORD PTR $T4[rsp]
	mov	rcx, rax
	call	?MultQuat@QUAT@@QEAAXV1@@Z		; QUAT::MultQuat
	npad	1
; Line 33
	lea	rcx, QWORD PTR temp_quat$[rsp]
	call	??1QUAT@@QEAA@XZ			; QUAT::~QUAT
	mov	rcx, rsp
	lea	rdx, OFFSET FLAT:?Rotate@OBJECT@@QEAAXXZ$rtcFrameData
	call	_RTC_CheckStackVars
	add	rsp, 136				; 00000088H
	pop	rdi
	pop	rsi
	ret	0
?Rotate@OBJECT@@QEAAXXZ ENDP				; OBJECT::Rotate
_TEXT	ENDS
; Function compile flags: /Odtp /RTCsu
text$x	SEGMENT
temp_quat$ = 56
$T4 = 96
tv85 = 112
this$ = 160
?dtor$0@?0??Rotate@OBJECT@@QEAAXXZ@4HA PROC		; `OBJECT::Rotate'::`1'::dtor$0
	mov	QWORD PTR [rsp+8], rcx
	mov	QWORD PTR [rsp+16], rdx
	push	rbp
	push	rdi
	sub	rsp, 40					; 00000028H
	mov	rbp, rdx
	lea	rcx, QWORD PTR temp_quat$[rbp]
	call	??1QUAT@@QEAA@XZ			; QUAT::~QUAT
	add	rsp, 40					; 00000028H
	pop	rdi
	pop	rbp
	ret	0
?dtor$0@?0??Rotate@OBJECT@@QEAAXXZ@4HA ENDP		; `OBJECT::Rotate'::`1'::dtor$0
text$x	ENDS
; Function compile flags: /Odtp /RTCsu
_TEXT	SEGMENT
this$ = 48
?Set@OBJECT@@QEAAXXZ PROC				; OBJECT::Set
; File D:\dev\cpp\40_BIM\01_AlanBaylis\cpp\OGLMDI2_VS2022\Build01\object.cpp
; Line 17
$LN3:
	mov	QWORD PTR [rsp+8], rcx
	push	rdi
	sub	rsp, 32					; 00000020H
; Line 18
	mov	rax, QWORD PTR this$[rsp]
	mov	rcx, rax
	call	?Set@QUAT@@QEAAXXZ			; QUAT::Set
; Line 19
	mov	rax, QWORD PTR this$[rsp]
	add	rax, 16
	mov	rcx, rax
	call	?Set@VECTOR@@QEAAXXZ			; VECTOR::Set
; Line 20
	mov	rax, QWORD PTR this$[rsp]
	xorps	xmm0, xmm0
	movss	DWORD PTR [rax+28], xmm0
; Line 21
	mov	rax, QWORD PTR this$[rsp]
	xorps	xmm0, xmm0
	movss	DWORD PTR [rax+32], xmm0
; Line 22
	mov	rax, QWORD PTR this$[rsp]
	xorps	xmm0, xmm0
	movss	DWORD PTR [rax+36], xmm0
; Line 23
	mov	rax, QWORD PTR this$[rsp]
	xorps	xmm0, xmm0
	movss	DWORD PTR [rax+40], xmm0
; Line 24
	mov	rax, QWORD PTR this$[rsp]
	xorps	xmm0, xmm0
	movss	DWORD PTR [rax+44], xmm0
; Line 25
	mov	rax, QWORD PTR this$[rsp]
	xorps	xmm0, xmm0
	movss	DWORD PTR [rax+48], xmm0
; Line 26
	add	rsp, 32					; 00000020H
	pop	rdi
	ret	0
?Set@OBJECT@@QEAAXXZ ENDP				; OBJECT::Set
_TEXT	ENDS
; Function compile flags: /Odtp /RTCsu
_TEXT	SEGMENT
this$ = 48
??1OBJECT@@QEAA@XZ PROC					; OBJECT::~OBJECT
; File D:\dev\cpp\40_BIM\01_AlanBaylis\cpp\OGLMDI2_VS2022\Build01\object.cpp
; Line 13
$LN3:
	mov	QWORD PTR [rsp+8], rcx
	push	rdi
	sub	rsp, 32					; 00000020H
; Line 14
	mov	rax, QWORD PTR this$[rsp]
	add	rax, 16
	mov	rcx, rax
	call	??1VECTOR@@QEAA@XZ			; VECTOR::~VECTOR
	mov	rax, QWORD PTR this$[rsp]
	mov	rcx, rax
	call	??1QUAT@@QEAA@XZ			; QUAT::~QUAT
	add	rsp, 32					; 00000020H
	pop	rdi
	ret	0
??1OBJECT@@QEAA@XZ ENDP					; OBJECT::~OBJECT
_TEXT	ENDS
; Function compile flags: /Odtp /RTCsu
_TEXT	SEGMENT
this$ = 64
??0OBJECT@@QEAA@XZ PROC					; OBJECT::OBJECT
; File D:\dev\cpp\40_BIM\01_AlanBaylis\cpp\OGLMDI2_VS2022\Build01\object.cpp
; Line 9
$LN5:
	mov	QWORD PTR [rsp+8], rcx
	push	rdi
	sub	rsp, 48					; 00000030H
	mov	rax, QWORD PTR this$[rsp]
	movss	xmm0, DWORD PTR __real@3f800000
	movss	DWORD PTR [rsp+32], xmm0
	xorps	xmm3, xmm3
	xorps	xmm2, xmm2
	xorps	xmm1, xmm1
	mov	rcx, rax
	call	??0QUAT@@QEAA@MMMM@Z			; QUAT::QUAT
	npad	1
	mov	rax, QWORD PTR this$[rsp]
	add	rax, 16
	xorps	xmm3, xmm3
	xorps	xmm2, xmm2
	xorps	xmm1, xmm1
	mov	rcx, rax
	call	??0VECTOR@@QEAA@MMM@Z			; VECTOR::VECTOR
	npad	1
; Line 10
	mov	rax, QWORD PTR this$[rsp]
	add	rsp, 48					; 00000030H
	pop	rdi
	ret	0
??0OBJECT@@QEAA@XZ ENDP					; OBJECT::OBJECT
_TEXT	ENDS
; Function compile flags: /Odtp /RTCsu
text$x	SEGMENT
this$ = 64
?dtor$0@?0???0OBJECT@@QEAA@XZ@4HA PROC			; `OBJECT::OBJECT'::`1'::dtor$0
	mov	QWORD PTR [rsp+8], rcx
	mov	QWORD PTR [rsp+16], rdx
	push	rbp
	push	rdi
	sub	rsp, 40					; 00000028H
	mov	rbp, rdx
	mov	rcx, QWORD PTR this$[rbp]
	call	??1QUAT@@QEAA@XZ			; QUAT::~QUAT
	add	rsp, 40					; 00000028H
	pop	rdi
	pop	rbp
	ret	0
?dtor$0@?0???0OBJECT@@QEAA@XZ@4HA ENDP			; `OBJECT::OBJECT'::`1'::dtor$0
text$x	ENDS
; Function compile flags: /Odtp /RTCsu
;	COMDAT ?__empty_global_delete@@YAXPEAX_K@Z
_TEXT	SEGMENT
__formal$ = 16
__formal$ = 24
?__empty_global_delete@@YAXPEAX_K@Z PROC		; __empty_global_delete, COMDAT
; File D:\dev\cpp\40_BIM\01_AlanBaylis\cpp\OGLMDI2_VS2022\Build01\object.cpp
; Line 277
$LN3:
	mov	QWORD PTR [rsp+16], rdx
	mov	QWORD PTR [rsp+8], rcx
	push	rdi
	pop	rdi
	ret	0
?__empty_global_delete@@YAXPEAX_K@Z ENDP		; __empty_global_delete
_TEXT	ENDS
; Function compile flags: /Odtp /RTCsu
;	COMDAT ?__empty_global_delete@@YAXPEAX@Z
_TEXT	SEGMENT
__formal$ = 16
?__empty_global_delete@@YAXPEAX@Z PROC			; __empty_global_delete, COMDAT
; File D:\dev\cpp\40_BIM\01_AlanBaylis\cpp\OGLMDI2_VS2022\Build01\object.cpp
; Line 277
$LN3:
	mov	QWORD PTR [rsp+8], rcx
	push	rdi
	pop	rdi
	ret	0
?__empty_global_delete@@YAXPEAX@Z ENDP			; __empty_global_delete
_TEXT	ENDS
END
