; Listing generated by Microsoft (R) Optimizing Compiler Version 19.38.33133.0 

include listing.inc

INCLUDELIB LIBCMTD
INCLUDELIB OLDNAMES

CONST	SEGMENT
$SG123919 DB	'invalid argument', 00H
	ORG $+3
$SG123920 DB	'%s', 00H
	ORG $+9
$SG123921 DB	'C:\Program Files\Microsoft Visual Studio\2022\Community\'
	DB	'VC\Tools\MSVC\14.38.33130\include\xmemory', 00H
	ORG $+14
$SG123922 DB	'C', 00H, ':', 00H, '\', 00H, 'P', 00H, 'r', 00H, 'o', 00H
	DB	'g', 00H, 'r', 00H, 'a', 00H, 'm', 00H, ' ', 00H, 'F', 00H, 'i'
	DB	00H, 'l', 00H, 'e', 00H, 's', 00H, '\', 00H, 'M', 00H, 'i', 00H
	DB	'c', 00H, 'r', 00H, 'o', 00H, 's', 00H, 'o', 00H, 'f', 00H, 't'
	DB	00H, ' ', 00H, 'V', 00H, 'i', 00H, 's', 00H, 'u', 00H, 'a', 00H
	DB	'l', 00H, ' ', 00H, 'S', 00H, 't', 00H, 'u', 00H, 'd', 00H, 'i'
	DB	00H, 'o', 00H, '\', 00H, '2', 00H, '0', 00H, '2', 00H, '2', 00H
	DB	'\', 00H, 'C', 00H, 'o', 00H, 'm', 00H, 'm', 00H, 'u', 00H, 'n'
	DB	00H, 'i', 00H, 't', 00H, 'y', 00H, '\', 00H, 'V', 00H, 'C', 00H
	DB	'\', 00H, 'T', 00H, 'o', 00H, 'o', 00H, 'l', 00H, 's', 00H, '\'
	DB	00H, 'M', 00H, 'S', 00H, 'V', 00H, 'C', 00H, '\', 00H, '1', 00H
	DB	'4', 00H, '.', 00H, '3', 00H, '8', 00H, '.', 00H, '3', 00H, '3'
	DB	00H, '1', 00H, '3', 00H, '0', 00H, '\', 00H, 'i', 00H, 'n', 00H
	DB	'c', 00H, 'l', 00H, 'u', 00H, 'd', 00H, 'e', 00H, '\', 00H, 'x'
	DB	00H, 'm', 00H, 'e', 00H, 'm', 00H, 'o', 00H, 'r', 00H, 'y', 00H
	DB	00H, 00H
$SG123923 DB	00H, 00H
	ORG $+2
$SG123924 DB	'"', 00H, 'i', 00H, 'n', 00H, 'v', 00H, 'a', 00H, 'l', 00H
	DB	'i', 00H, 'd', 00H, ' ', 00H, 'a', 00H, 'r', 00H, 'g', 00H, 'u'
	DB	00H, 'm', 00H, 'e', 00H, 'n', 00H, 't', 00H, '"', 00H, 00H, 00H
	ORG $+2
$SG121665 DB	'Debug Window', 00H
	ORG $+3
$SG121666 DB	'w', 00H
	ORG $+2
$SG121667 DB	'r', 00H
	ORG $+2
$SG121668 DB	'w', 00H
CONST	ENDS
PUBLIC	?__empty_global_delete@@YAXPEAX@Z		; __empty_global_delete
PUBLIC	?__empty_global_delete@@YAXPEAX_K@Z		; __empty_global_delete
PUBLIC	?sync_with_stdio@ios_base@std@@SA_N_N@Z		; std::ios_base::sync_with_stdio
PUBLIC	??0ConsoleWindow@@QEAA@XZ			; ConsoleWindow::ConsoleWindow
PUBLIC	??1ConsoleWindow@@QEAA@XZ			; ConsoleWindow::~ConsoleWindow
PUBLIC	?Open@ConsoleWindow@@QEAAXXZ			; ConsoleWindow::Open
PUBLIC	?Close@ConsoleWindow@@QEAAXXZ			; ConsoleWindow::Close
EXTRN	__imp_GetStdHandle:PROC
EXTRN	__imp_AllocConsole:PROC
EXTRN	__imp_FreeConsole:PROC
EXTRN	__imp_GetConsoleScreenBufferInfo:PROC
EXTRN	__imp_SetConsoleScreenBufferSize:PROC
EXTRN	__imp_SetConsoleTitleA:PROC
EXTRN	??0_Lockit@std@@QEAA@H@Z:PROC			; std::_Lockit::_Lockit
EXTRN	??1_Lockit@std@@QEAA@XZ:PROC			; std::_Lockit::~_Lockit
EXTRN	__acrt_iob_func:PROC
EXTRN	fclose:PROC
EXTRN	_fdopen:PROC
EXTRN	setvbuf:PROC
EXTRN	_open_osfhandle:PROC
EXTRN	_RTC_CheckStackVars:PROC
EXTRN	_RTC_InitBase:PROC
EXTRN	_RTC_Shutdown:PROC
EXTRN	__GSHandlerCheck:PROC
EXTRN	__security_check_cookie:PROC
EXTRN	?_Sync@ios_base@std@@0_NA:BYTE			; std::ios_base::_Sync
EXTRN	__security_cookie:QWORD
;	COMDAT pdata
pdata	SEGMENT
$pdata$?__empty_global_delete@@YAXPEAX@Z DD imagerel $LN3
	DD	imagerel $LN3+8
	DD	imagerel $unwind$?__empty_global_delete@@YAXPEAX@Z
pdata	ENDS
;	COMDAT pdata
pdata	SEGMENT
$pdata$?__empty_global_delete@@YAXPEAX_K@Z DD imagerel $LN3
	DD	imagerel $LN3+13
	DD	imagerel $unwind$?__empty_global_delete@@YAXPEAX_K@Z
pdata	ENDS
;	COMDAT pdata
pdata	SEGMENT
$pdata$?sync_with_stdio@ios_base@std@@SA_N_N@Z DD imagerel $LN4
	DD	imagerel $LN4+117
	DD	imagerel $unwind$?sync_with_stdio@ios_base@std@@SA_N_N@Z
pdata	ENDS
pdata	SEGMENT
$pdata$??0ConsoleWindow@@QEAA@XZ DD imagerel $LN3
	DD	imagerel $LN3+53
	DD	imagerel $unwind$??0ConsoleWindow@@QEAA@XZ
$pdata$??1ConsoleWindow@@QEAA@XZ DD imagerel $LN4
	DD	imagerel $LN4+48
	DD	imagerel $unwind$??1ConsoleWindow@@QEAA@XZ
$pdata$?Open@ConsoleWindow@@QEAAXXZ DD imagerel $LN4
	DD	imagerel $LN4+671
	DD	imagerel $unwind$?Open@ConsoleWindow@@QEAAXXZ
$pdata$?Close@ConsoleWindow@@QEAAXXZ DD imagerel $LN4
	DD	imagerel $LN4+61
	DD	imagerel $unwind$?Close@ConsoleWindow@@QEAAXXZ
pdata	ENDS
;	COMDAT rtc$TMZ
rtc$TMZ	SEGMENT
_RTC_Shutdown.rtc$TMZ DQ FLAT:_RTC_Shutdown
rtc$TMZ	ENDS
;	COMDAT rtc$IMZ
rtc$IMZ	SEGMENT
_RTC_InitBase.rtc$IMZ DQ FLAT:_RTC_InitBase
rtc$IMZ	ENDS
voltbl	SEGMENT
_volmd	DD	0ffffffffH
	DDSymXIndex: 	FLAT:?Open@ConsoleWindow@@QEAAXXZ
	DD	02dH
	DD	028cH
voltbl	ENDS
CONST	SEGMENT
	ORG $+6
?Open@ConsoleWindow@@QEAAXXZ$rtcName$0 DB 063H		; ConsoleWindow::Open
	DB	06fH
	DB	06eH
	DB	069H
	DB	06eH
	DB	066H
	DB	06fH
	DB	00H
	ORG $+8
?Open@ConsoleWindow@@QEAAXXZ$rtcVarDesc DD 028H		; ConsoleWindow::Open
	DD	016H
	DQ	FLAT:?Open@ConsoleWindow@@QEAAXXZ$rtcName$0
	ORG $+48
?Open@ConsoleWindow@@QEAAXXZ$rtcFrameData DD 01H	; ConsoleWindow::Open
	DD	00H
	DQ	FLAT:?Open@ConsoleWindow@@QEAAXXZ$rtcVarDesc
CONST	ENDS
xdata	SEGMENT
$unwind$??0ConsoleWindow@@QEAA@XZ DD 010601H
	DD	07006H
$unwind$??1ConsoleWindow@@QEAA@XZ DD 020a01H
	DD	07006320aH
$unwind$?Open@ConsoleWindow@@QEAAXXZ DD 023219H
	DD	07006d20aH
	DD	imagerel __GSHandlerCheck
	DD	068H
$unwind$?Close@ConsoleWindow@@QEAAXXZ DD 020a01H
	DD	07006320aH
xdata	ENDS
;	COMDAT xdata
xdata	SEGMENT
$unwind$?sync_with_stdio@ios_base@std@@SA_N_N@Z DD 021f01H
	DD	070057209H
xdata	ENDS
;	COMDAT CONST
CONST	SEGMENT
?sync_with_stdio@ios_base@std@@SA_N_N@Z$rtcName$0 DB 05fH ; std::ios_base::sync_with_stdio
	DB	04cH
	DB	06fH
	DB	063H
	DB	06bH
	DB	00H
	ORG $+10
?sync_with_stdio@ios_base@std@@SA_N_N@Z$rtcVarDesc DD 024H ; std::ios_base::sync_with_stdio
	DD	04H
	DQ	FLAT:?sync_with_stdio@ios_base@std@@SA_N_N@Z$rtcName$0
	ORG $+48
?sync_with_stdio@ios_base@std@@SA_N_N@Z$rtcFrameData DD 01H ; std::ios_base::sync_with_stdio
	DD	00H
	DQ	FLAT:?sync_with_stdio@ios_base@std@@SA_N_N@Z$rtcVarDesc
CONST	ENDS
;	COMDAT xdata
xdata	SEGMENT
$unwind$?__empty_global_delete@@YAXPEAX_K@Z DD 010b01H
	DD	0700bH
xdata	ENDS
;	COMDAT xdata
xdata	SEGMENT
$unwind$?__empty_global_delete@@YAXPEAX@Z DD 010601H
	DD	07006H
xdata	ENDS
; Function compile flags: /Odtp /RTCsu
_TEXT	SEGMENT
this$ = 48
?Close@ConsoleWindow@@QEAAXXZ PROC			; ConsoleWindow::Close
; File D:\dev\cpp\40_BIM\01_AlanBaylis\cpp\OGLMDI2_VS2022\Build01\console.cpp
; Line 57
$LN4:
	mov	QWORD PTR [rsp+8], rcx
	push	rdi
	sub	rsp, 32					; 00000020H
; Line 58
	mov	rax, QWORD PTR this$[rsp]
	cmp	QWORD PTR [rax+16], -1
	je	SHORT $LN2@Close
; Line 60
	call	QWORD PTR __imp_FreeConsole
; Line 61
	mov	rax, QWORD PTR this$[rsp]
	mov	rcx, QWORD PTR [rax+8]
	call	fclose
; Line 62
	mov	rax, QWORD PTR this$[rsp]
	mov	QWORD PTR [rax+16], -1
$LN2@Close:
; Line 64
	add	rsp, 32					; 00000020H
	pop	rdi
	ret	0
?Close@ConsoleWindow@@QEAAXXZ ENDP			; ConsoleWindow::Close
_TEXT	ENDS
; Function compile flags: /Odtp /RTCsu
_TEXT	SEGMENT
coninfo$4 = 40
tv94 = 80
tv151 = 88
tv176 = 96
__$ArrayPad$ = 104
this$ = 128
?Open@ConsoleWindow@@QEAAXXZ PROC			; ConsoleWindow::Open
; File D:\dev\cpp\40_BIM\01_AlanBaylis\cpp\OGLMDI2_VS2022\Build01\console.cpp
; Line 21
$LN4:
	mov	QWORD PTR [rsp+8], rcx
	push	rdi
	sub	rsp, 112				; 00000070H
	lea	rdi, QWORD PTR [rsp+32]
	mov	ecx, 20
	mov	eax, -858993460				; ccccccccH
	rep stosd
	mov	rcx, QWORD PTR [rsp+128]
	mov	rax, QWORD PTR __security_cookie
	xor	rax, rsp
	mov	QWORD PTR __$ArrayPad$[rsp], rax
; Line 22
	mov	rax, QWORD PTR this$[rsp]
	cmp	QWORD PTR [rax+16], -1
	jne	$LN2@Open
; Line 26
	call	QWORD PTR __imp_AllocConsole
; Line 28
	mov	ecx, -11				; fffffff5H
	call	QWORD PTR __imp_GetStdHandle
	lea	rdx, QWORD PTR coninfo$4[rsp]
	mov	rcx, rax
	call	QWORD PTR __imp_GetConsoleScreenBufferInfo
; Line 29
	mov	rax, QWORD PTR this$[rsp]
	movzx	eax, WORD PTR [rax]
	mov	WORD PTR coninfo$4[rsp+2], ax
; Line 30
	mov	ecx, -11				; fffffff5H
	call	QWORD PTR __imp_GetStdHandle
	mov	edx, DWORD PTR coninfo$4[rsp]
	mov	rcx, rax
	call	QWORD PTR __imp_SetConsoleScreenBufferSize
; Line 32
	lea	rcx, OFFSET FLAT:$SG121665
	call	QWORD PTR __imp_SetConsoleTitleA
; Line 34
	mov	ecx, -11				; fffffff5H
	call	QWORD PTR __imp_GetStdHandle
	mov	rcx, QWORD PTR this$[rsp]
	mov	QWORD PTR [rcx+16], rax
; Line 35
	mov	rax, QWORD PTR this$[rsp]
	movsxd	rax, DWORD PTR [rax+16]
	mov	edx, 16384				; 00004000H
	mov	rcx, rax
	call	_open_osfhandle
	mov	rcx, QWORD PTR this$[rsp]
	mov	DWORD PTR [rcx+24], eax
; Line 36
	lea	rdx, OFFSET FLAT:$SG121666
	mov	rax, QWORD PTR this$[rsp]
	mov	ecx, DWORD PTR [rax+24]
	call	_fdopen
	mov	rcx, QWORD PTR this$[rsp]
	mov	QWORD PTR [rcx+8], rax
; Line 37
	mov	rax, QWORD PTR this$[rsp]
	mov	rax, QWORD PTR [rax+8]
	mov	rax, QWORD PTR [rax]
	mov	QWORD PTR tv94[rsp], rax
	mov	ecx, 1
	call	__acrt_iob_func
	mov	rcx, QWORD PTR tv94[rsp]
	mov	QWORD PTR [rax], rcx
; Line 38
	mov	ecx, 1
	call	__acrt_iob_func
	xor	r9d, r9d
	mov	r8d, 4
	xor	edx, edx
	mov	rcx, rax
	call	setvbuf
; Line 40
	mov	ecx, -10				; fffffff6H
	call	QWORD PTR __imp_GetStdHandle
	mov	rcx, QWORD PTR this$[rsp]
	mov	QWORD PTR [rcx+16], rax
; Line 41
	mov	rax, QWORD PTR this$[rsp]
	movsxd	rax, DWORD PTR [rax+16]
	mov	edx, 16384				; 00004000H
	mov	rcx, rax
	call	_open_osfhandle
	mov	rcx, QWORD PTR this$[rsp]
	mov	DWORD PTR [rcx+24], eax
; Line 42
	lea	rdx, OFFSET FLAT:$SG121667
	mov	rax, QWORD PTR this$[rsp]
	mov	ecx, DWORD PTR [rax+24]
	call	_fdopen
	mov	rcx, QWORD PTR this$[rsp]
	mov	QWORD PTR [rcx+8], rax
; Line 43
	mov	rax, QWORD PTR this$[rsp]
	mov	rax, QWORD PTR [rax+8]
	mov	rax, QWORD PTR [rax]
	mov	QWORD PTR tv151[rsp], rax
	xor	ecx, ecx
	call	__acrt_iob_func
	mov	rcx, QWORD PTR tv151[rsp]
	mov	QWORD PTR [rax], rcx
; Line 44
	xor	ecx, ecx
	call	__acrt_iob_func
	xor	r9d, r9d
	mov	r8d, 4
	xor	edx, edx
	mov	rcx, rax
	call	setvbuf
; Line 46
	mov	ecx, -12				; fffffff4H
	call	QWORD PTR __imp_GetStdHandle
	mov	rcx, QWORD PTR this$[rsp]
	mov	QWORD PTR [rcx+16], rax
; Line 47
	mov	rax, QWORD PTR this$[rsp]
	movsxd	rax, DWORD PTR [rax+16]
	mov	edx, 16384				; 00004000H
	mov	rcx, rax
	call	_open_osfhandle
	mov	rcx, QWORD PTR this$[rsp]
	mov	DWORD PTR [rcx+24], eax
; Line 48
	lea	rdx, OFFSET FLAT:$SG121668
	mov	rax, QWORD PTR this$[rsp]
	mov	ecx, DWORD PTR [rax+24]
	call	_fdopen
	mov	rcx, QWORD PTR this$[rsp]
	mov	QWORD PTR [rcx+8], rax
; Line 49
	mov	rax, QWORD PTR this$[rsp]
	mov	rax, QWORD PTR [rax+8]
	mov	rax, QWORD PTR [rax]
	mov	QWORD PTR tv176[rsp], rax
	mov	ecx, 2
	call	__acrt_iob_func
	mov	rcx, QWORD PTR tv176[rsp]
	mov	QWORD PTR [rax], rcx
; Line 50
	mov	ecx, 2
	call	__acrt_iob_func
	xor	r9d, r9d
	mov	r8d, 4
	xor	edx, edx
	mov	rcx, rax
	call	setvbuf
; Line 52
	mov	cl, 1
	call	?sync_with_stdio@ios_base@std@@SA_N_N@Z	; std::ios_base::sync_with_stdio
$LN2@Open:
; Line 54
	mov	rcx, rsp
	lea	rdx, OFFSET FLAT:?Open@ConsoleWindow@@QEAAXXZ$rtcFrameData
	call	_RTC_CheckStackVars
	mov	rcx, QWORD PTR __$ArrayPad$[rsp]
	xor	rcx, rsp
	call	__security_check_cookie
	add	rsp, 112				; 00000070H
	pop	rdi
	ret	0
?Open@ConsoleWindow@@QEAAXXZ ENDP			; ConsoleWindow::Open
_TEXT	ENDS
; Function compile flags: /Odtp /RTCsu
_TEXT	SEGMENT
this$ = 48
??1ConsoleWindow@@QEAA@XZ PROC				; ConsoleWindow::~ConsoleWindow
; File D:\dev\cpp\40_BIM\01_AlanBaylis\cpp\OGLMDI2_VS2022\Build01\console.cpp
; Line 12
$LN4:
	mov	QWORD PTR [rsp+8], rcx
	push	rdi
	sub	rsp, 32					; 00000020H
; Line 13
	mov	rax, QWORD PTR this$[rsp]
	cmp	QWORD PTR [rax+16], -1
	je	SHORT $LN2@ConsoleWin
; Line 15
	call	QWORD PTR __imp_FreeConsole
; Line 16
	mov	rax, QWORD PTR this$[rsp]
	mov	rcx, QWORD PTR [rax+8]
	call	fclose
$LN2@ConsoleWin:
; Line 18
	add	rsp, 32					; 00000020H
	pop	rdi
	ret	0
??1ConsoleWindow@@QEAA@XZ ENDP				; ConsoleWindow::~ConsoleWindow
_TEXT	ENDS
; Function compile flags: /Odtp /RTCsu
_TEXT	SEGMENT
this$ = 16
??0ConsoleWindow@@QEAA@XZ PROC				; ConsoleWindow::ConsoleWindow
; File D:\dev\cpp\40_BIM\01_AlanBaylis\cpp\OGLMDI2_VS2022\Build01\console.cpp
; Line 7
$LN3:
	mov	QWORD PTR [rsp+8], rcx
	push	rdi
; Line 5
	mov	eax, 500				; 000001f4H
	mov	rcx, QWORD PTR this$[rsp]
	mov	WORD PTR [rcx], ax
; Line 6
	mov	eax, 500				; 000001f4H
	mov	rcx, QWORD PTR this$[rsp]
	mov	WORD PTR [rcx+2], ax
; Line 8
	mov	rax, QWORD PTR this$[rsp]
	mov	QWORD PTR [rax+16], -1
; Line 9
	mov	rax, QWORD PTR this$[rsp]
	pop	rdi
	ret	0
??0ConsoleWindow@@QEAA@XZ ENDP				; ConsoleWindow::ConsoleWindow
_TEXT	ENDS
; Function compile flags: /Odtp /RTCsu
;	COMDAT ?sync_with_stdio@ios_base@std@@SA_N_N@Z
_TEXT	SEGMENT
_Lock$4 = 36
_Oldsync$5 = 52
$T6 = 53
_Newsync$ = 80
?sync_with_stdio@ios_base@std@@SA_N_N@Z PROC		; std::ios_base::sync_with_stdio, COMDAT
; File C:\Program Files\Microsoft Visual Studio\2022\Community\VC\Tools\MSVC\14.38.33130\include\xiosbase
; Line 355
$LN4:
	mov	BYTE PTR [rsp+8], cl
	push	rdi
	sub	rsp, 64					; 00000040H
	lea	rdi, QWORD PTR [rsp+32]
	mov	ecx, 8
	mov	eax, -858993460				; ccccccccH
	rep stosd
	movzx	ecx, BYTE PTR [rsp+80]
; Line 357
	mov	edx, 2
	lea	rcx, QWORD PTR _Lock$4[rsp]
	call	??0_Lockit@std@@QEAA@H@Z		; std::_Lockit::_Lockit
; Line 358
	movzx	eax, BYTE PTR ?_Sync@ios_base@std@@0_NA	; std::ios_base::_Sync
	mov	BYTE PTR _Oldsync$5[rsp], al
; Line 359
	movzx	eax, BYTE PTR _Newsync$[rsp]
	mov	BYTE PTR ?_Sync@ios_base@std@@0_NA, al	; std::ios_base::_Sync
; Line 360
	movzx	eax, BYTE PTR _Oldsync$5[rsp]
	mov	BYTE PTR $T6[rsp], al
	lea	rcx, QWORD PTR _Lock$4[rsp]
	call	??1_Lockit@std@@QEAA@XZ			; std::_Lockit::~_Lockit
	movzx	eax, BYTE PTR $T6[rsp]
; Line 362
	mov	edi, eax
	mov	rcx, rsp
	lea	rdx, OFFSET FLAT:?sync_with_stdio@ios_base@std@@SA_N_N@Z$rtcFrameData
	call	_RTC_CheckStackVars
	mov	eax, edi
	add	rsp, 64					; 00000040H
	pop	rdi
	ret	0
?sync_with_stdio@ios_base@std@@SA_N_N@Z ENDP		; std::ios_base::sync_with_stdio
_TEXT	ENDS
; Function compile flags: /Odtp /RTCsu
;	COMDAT ?__empty_global_delete@@YAXPEAX_K@Z
_TEXT	SEGMENT
__formal$ = 16
__formal$ = 24
?__empty_global_delete@@YAXPEAX_K@Z PROC		; __empty_global_delete, COMDAT
; File D:\dev\cpp\40_BIM\01_AlanBaylis\cpp\OGLMDI2_VS2022\Build01\console.cpp
; Line 66
$LN3:
	mov	QWORD PTR [rsp+16], rdx
	mov	QWORD PTR [rsp+8], rcx
	push	rdi
	pop	rdi
	ret	0
?__empty_global_delete@@YAXPEAX_K@Z ENDP		; __empty_global_delete
_TEXT	ENDS
; Function compile flags: /Odtp /RTCsu
;	COMDAT ?__empty_global_delete@@YAXPEAX@Z
_TEXT	SEGMENT
__formal$ = 16
?__empty_global_delete@@YAXPEAX@Z PROC			; __empty_global_delete, COMDAT
; File D:\dev\cpp\40_BIM\01_AlanBaylis\cpp\OGLMDI2_VS2022\Build01\console.cpp
; Line 66
$LN3:
	mov	QWORD PTR [rsp+8], rcx
	push	rdi
	pop	rdi
	ret	0
?__empty_global_delete@@YAXPEAX@Z ENDP			; __empty_global_delete
_TEXT	ENDS
END
