; Listing generated by Microsoft (R) Optimizing Compiler Version 19.38.33133.0 

include listing.inc

INCLUDELIB LIBCMTD
INCLUDELIB OLDNAMES

PUBLIC	?log@@3PEAU_iobuf@@EA				; log
_BSS	SEGMENT
?log@@3PEAU_iobuf@@EA DQ 01H DUP (?)			; log
_BSS	ENDS
CONST	SEGMENT
$SG6392	DB	'wb', 00H
	ORG $+5
$SG6393	DB	'log.txt', 00H
$SG6434	DB	'a+', 00H
	ORG $+5
$SG6435	DB	'log.txt', 00H
$SG6436	DB	'%s', 0aH, 00H
$SG6448	DB	'a+', 00H
	ORG $+1
$SG6449	DB	'log.txt', 00H
$SG6450	DB	'%s', 00H
CONST	ENDS
PUBLIC	__local_stdio_printf_options
PUBLIC	_vfprintf_l
PUBLIC	fprintf
PUBLIC	_vsnprintf_l
PUBLIC	vsprintf
PUBLIC	?addLine@CLog@@SAXPEADZZ			; CLog::addLine
PUBLIC	?addLine2@CLog@@SAXPEADZZ			; CLog::addLine2
PUBLIC	?initLog@CLog@@SAXXZ				; CLog::initLog
PUBLIC	?terminateLog@CLog@@SAXXZ			; CLog::terminateLog
PUBLIC	?_OptionsStorage@?1??__local_stdio_printf_options@@9@4_KA ; `__local_stdio_printf_options'::`2'::_OptionsStorage
EXTRN	fclose:PROC
EXTRN	fopen:PROC
EXTRN	__stdio_common_vfprintf:PROC
EXTRN	__stdio_common_vsprintf:PROC
EXTRN	_RTC_CheckStackVars:PROC
EXTRN	_RTC_InitBase:PROC
EXTRN	_RTC_Shutdown:PROC
EXTRN	__GSHandlerCheck:PROC
EXTRN	__security_check_cookie:PROC
EXTRN	__security_cookie:QWORD
;	COMDAT ?_OptionsStorage@?1??__local_stdio_printf_options@@9@4_KA
_BSS	SEGMENT
?_OptionsStorage@?1??__local_stdio_printf_options@@9@4_KA DQ 01H DUP (?) ; `__local_stdio_printf_options'::`2'::_OptionsStorage
_BSS	ENDS
;	COMDAT pdata
pdata	SEGMENT
$pdata$__local_stdio_printf_options DD imagerel $LN3
	DD	imagerel $LN3+11
	DD	imagerel $unwind$__local_stdio_printf_options
pdata	ENDS
;	COMDAT pdata
pdata	SEGMENT
$pdata$_vfprintf_l DD imagerel $LN3
	DD	imagerel $LN3+69
	DD	imagerel $unwind$_vfprintf_l
pdata	ENDS
;	COMDAT pdata
pdata	SEGMENT
$pdata$fprintf DD imagerel $LN3
	DD	imagerel $LN3+122
	DD	imagerel $unwind$fprintf
pdata	ENDS
;	COMDAT pdata
pdata	SEGMENT
$pdata$_vsnprintf_l DD imagerel $LN5
	DD	imagerel $LN5+119
	DD	imagerel $unwind$_vsnprintf_l
pdata	ENDS
;	COMDAT pdata
pdata	SEGMENT
$pdata$vsprintf DD imagerel $LN3
	DD	imagerel $LN3+61
	DD	imagerel $unwind$vsprintf
pdata	ENDS
pdata	SEGMENT
$pdata$?addLine@CLog@@SAXPEADZZ DD imagerel $LN4
	DD	imagerel $LN4+239
	DD	imagerel $unwind$?addLine@CLog@@SAXPEADZZ
$pdata$?addLine2@CLog@@SAXPEADZZ DD imagerel $LN4
	DD	imagerel $LN4+239
	DD	imagerel $unwind$?addLine2@CLog@@SAXPEADZZ
$pdata$?initLog@CLog@@SAXXZ DD imagerel $LN4
	DD	imagerel $LN4+62
	DD	imagerel $unwind$?initLog@CLog@@SAXXZ
$pdata$?terminateLog@CLog@@SAXXZ DD imagerel $LN4
	DD	imagerel $LN4+34
	DD	imagerel $unwind$?terminateLog@CLog@@SAXXZ
pdata	ENDS
;	COMDAT rtc$TMZ
rtc$TMZ	SEGMENT
_RTC_Shutdown.rtc$TMZ DQ FLAT:_RTC_Shutdown
rtc$TMZ	ENDS
;	COMDAT rtc$IMZ
rtc$IMZ	SEGMENT
_RTC_InitBase.rtc$IMZ DQ FLAT:_RTC_InitBase
rtc$IMZ	ENDS
voltbl	SEGMENT
_volmd	DD	0ffffffffH
	DDSymXIndex: 	FLAT:?addLine2@CLog@@SAXPEADZZ
	DD	03fH
	DD	0d6H
_volmd	DD	0ffffffffH
	DDSymXIndex: 	FLAT:?addLine@CLog@@SAXPEADZZ
	DD	03fH
	DD	0d6H
voltbl	ENDS
xdata	SEGMENT
$unwind$?addLine@CLog@@SAXPEADZZ DD 034719H
	DD	08e011cH
	DD	07015H
	DD	imagerel __GSHandlerCheck
	DD	0468H
$unwind$?addLine2@CLog@@SAXPEADZZ DD 034719H
	DD	08e011cH
	DD	07015H
	DD	imagerel __GSHandlerCheck
	DD	0468H
$unwind$?initLog@CLog@@SAXXZ DD 020601H
	DD	070023206H
$unwind$?terminateLog@CLog@@SAXXZ DD 020601H
	DD	070023206H
xdata	ENDS
CONST	SEGMENT
	ORG $+5
?addLine@CLog@@SAXPEADZZ$rtcName$0 DB 074H		; CLog::addLine
	DB	065H
	DB	06dH
	DB	070H
	DB	074H
	DB	065H
	DB	078H
	DB	074H
	DB	00H
	ORG $+3
?addLine@CLog@@SAXPEADZZ$rtcName$1 DB 061H		; CLog::addLine
	DB	070H
	DB	00H
	ORG $+9
?addLine@CLog@@SAXPEADZZ$rtcVarDesc DD 0448H		; CLog::addLine
	DD	08H
	DQ	FLAT:?addLine@CLog@@SAXPEADZZ$rtcName$1
	DD	030H
	DD	0400H
	DQ	FLAT:?addLine@CLog@@SAXPEADZZ$rtcName$0
	ORG $+96
?addLine@CLog@@SAXPEADZZ$rtcFrameData DD 02H		; CLog::addLine
	DD	00H
	DQ	FLAT:?addLine@CLog@@SAXPEADZZ$rtcVarDesc
?addLine2@CLog@@SAXPEADZZ$rtcName$0 DB 074H		; CLog::addLine2
	DB	065H
	DB	06dH
	DB	070H
	DB	074H
	DB	065H
	DB	078H
	DB	074H
	DB	00H
	ORG $+3
?addLine2@CLog@@SAXPEADZZ$rtcName$1 DB 061H		; CLog::addLine2
	DB	070H
	DB	00H
	ORG $+1
?addLine2@CLog@@SAXPEADZZ$rtcVarDesc DD 0448H		; CLog::addLine2
	DD	08H
	DQ	FLAT:?addLine2@CLog@@SAXPEADZZ$rtcName$1
	DD	030H
	DD	0400H
	DQ	FLAT:?addLine2@CLog@@SAXPEADZZ$rtcName$0
	ORG $+96
?addLine2@CLog@@SAXPEADZZ$rtcFrameData DD 02H		; CLog::addLine2
	DD	00H
	DQ	FLAT:?addLine2@CLog@@SAXPEADZZ$rtcVarDesc
CONST	ENDS
;	COMDAT xdata
xdata	SEGMENT
$unwind$vsprintf DD 021401H
	DD	070105214H
xdata	ENDS
;	COMDAT xdata
xdata	SEGMENT
$unwind$_vsnprintf_l DD 021901H
	DD	070157219H
xdata	ENDS
;	COMDAT xdata
xdata	SEGMENT
$unwind$fprintf DD 022f01H
	DD	070159219H
xdata	ENDS
;	COMDAT CONST
CONST	SEGMENT
fprintf$rtcName$0 DB 05fH
	DB	041H
	DB	072H
	DB	067H
	DB	04cH
	DB	069H
	DB	073H
	DB	074H
	DB	00H
	ORG $+7
fprintf$rtcVarDesc DD 038H
	DD	08H
	DQ	FLAT:fprintf$rtcName$0
	ORG $+48
fprintf$rtcFrameData DD 01H
	DD	00H
	DQ	FLAT:fprintf$rtcVarDesc
CONST	ENDS
;	COMDAT xdata
xdata	SEGMENT
$unwind$_vfprintf_l DD 021901H
	DD	070155219H
xdata	ENDS
;	COMDAT xdata
xdata	SEGMENT
$unwind$__local_stdio_printf_options DD 010201H
	DD	07002H
xdata	ENDS
; Function compile flags: /Odtp /RTCsu
_TEXT	SEGMENT
?terminateLog@CLog@@SAXXZ PROC				; CLog::terminateLog
; File D:\dev\cpp\40_BIM\01_AlanBaylis\cpp\OGLMDI2_VS2022\Build01\log.cpp
; Line 21
$LN4:
	push	rdi
	sub	rsp, 32					; 00000020H
; Line 22
	cmp	QWORD PTR ?log@@3PEAU_iobuf@@EA, 0	; log
	je	SHORT $LN2@terminateL
	mov	rcx, QWORD PTR ?log@@3PEAU_iobuf@@EA	; log
	call	fclose
$LN2@terminateL:
; Line 23
	add	rsp, 32					; 00000020H
	pop	rdi
	ret	0
?terminateLog@CLog@@SAXXZ ENDP				; CLog::terminateLog
_TEXT	ENDS
; Function compile flags: /Odtp /RTCsu
_TEXT	SEGMENT
?initLog@CLog@@SAXXZ PROC				; CLog::initLog
; File D:\dev\cpp\40_BIM\01_AlanBaylis\cpp\OGLMDI2_VS2022\Build01\log.cpp
; Line 12
$LN4:
	push	rdi
	sub	rsp, 32					; 00000020H
; Line 14
	lea	rdx, OFFSET FLAT:$SG6392
	lea	rcx, OFFSET FLAT:$SG6393
	call	fopen
	mov	QWORD PTR ?log@@3PEAU_iobuf@@EA, rax	; log
	cmp	QWORD PTR ?log@@3PEAU_iobuf@@EA, 0	; log
	jne	SHORT $LN2@initLog
	jmp	SHORT $LN1@initLog
$LN2@initLog:
; Line 17
	mov	rcx, QWORD PTR ?log@@3PEAU_iobuf@@EA	; log
	call	fclose
$LN1@initLog:
; Line 18
	add	rsp, 32					; 00000020H
	pop	rdi
	ret	0
?initLog@CLog@@SAXXZ ENDP				; CLog::initLog
_TEXT	ENDS
; Function compile flags: /Odtp /RTCsu
_TEXT	SEGMENT
temptext$ = 48
ap$ = 1096
__$ArrayPad$ = 1128
text$ = 1152
?addLine2@CLog@@SAXPEADZZ PROC				; CLog::addLine2
; File D:\dev\cpp\40_BIM\01_AlanBaylis\cpp\OGLMDI2_VS2022\Build01\log.cpp
; Line 47
$LN4:
	mov	QWORD PTR [rsp+8], rcx
	mov	QWORD PTR [rsp+16], rdx
	mov	QWORD PTR [rsp+24], r8
	mov	QWORD PTR [rsp+32], r9
	push	rdi
	sub	rsp, 1136				; 00000470H
	lea	rdi, QWORD PTR [rsp+32]
	mov	ecx, 276				; 00000114H
	mov	eax, -858993460				; ccccccccH
	rep stosd
	mov	rcx, QWORD PTR [rsp+1152]
	mov	rax, QWORD PTR __security_cookie
	xor	rax, rsp
	mov	QWORD PTR __$ArrayPad$[rsp], rax
; Line 53
	lea	rax, QWORD PTR text$[rsp+8]
	mov	QWORD PTR ap$[rsp], rax
; Line 54
	mov	r8, QWORD PTR ap$[rsp]
	mov	rdx, QWORD PTR text$[rsp]
	lea	rcx, QWORD PTR temptext$[rsp]
	call	vsprintf
; Line 55
	mov	QWORD PTR ap$[rsp], 0
; Line 58
	lea	rdx, OFFSET FLAT:$SG6448
	lea	rcx, OFFSET FLAT:$SG6449
	call	fopen
	mov	QWORD PTR ?log@@3PEAU_iobuf@@EA, rax	; log
	cmp	QWORD PTR ?log@@3PEAU_iobuf@@EA, 0	; log
	jne	SHORT $LN2@addLine2
	jmp	SHORT $LN1@addLine2
$LN2@addLine2:
; Line 60
	lea	r8, QWORD PTR temptext$[rsp]
	lea	rdx, OFFSET FLAT:$SG6450
	mov	rcx, QWORD PTR ?log@@3PEAU_iobuf@@EA	; log
	call	fprintf
; Line 63
	mov	rcx, QWORD PTR ?log@@3PEAU_iobuf@@EA	; log
	call	fclose
$LN1@addLine2:
; Line 64
	mov	rcx, rsp
	lea	rdx, OFFSET FLAT:?addLine2@CLog@@SAXPEADZZ$rtcFrameData
	call	_RTC_CheckStackVars
	mov	rcx, QWORD PTR __$ArrayPad$[rsp]
	xor	rcx, rsp
	call	__security_check_cookie
	add	rsp, 1136				; 00000470H
	pop	rdi
	ret	0
?addLine2@CLog@@SAXPEADZZ ENDP				; CLog::addLine2
_TEXT	ENDS
; Function compile flags: /Odtp /RTCsu
_TEXT	SEGMENT
temptext$ = 48
ap$ = 1096
__$ArrayPad$ = 1128
text$ = 1152
?addLine@CLog@@SAXPEADZZ PROC				; CLog::addLine
; File D:\dev\cpp\40_BIM\01_AlanBaylis\cpp\OGLMDI2_VS2022\Build01\log.cpp
; Line 26
$LN4:
	mov	QWORD PTR [rsp+8], rcx
	mov	QWORD PTR [rsp+16], rdx
	mov	QWORD PTR [rsp+24], r8
	mov	QWORD PTR [rsp+32], r9
	push	rdi
	sub	rsp, 1136				; 00000470H
	lea	rdi, QWORD PTR [rsp+32]
	mov	ecx, 276				; 00000114H
	mov	eax, -858993460				; ccccccccH
	rep stosd
	mov	rcx, QWORD PTR [rsp+1152]
	mov	rax, QWORD PTR __security_cookie
	xor	rax, rsp
	mov	QWORD PTR __$ArrayPad$[rsp], rax
; Line 32
	lea	rax, QWORD PTR text$[rsp+8]
	mov	QWORD PTR ap$[rsp], rax
; Line 33
	mov	r8, QWORD PTR ap$[rsp]
	mov	rdx, QWORD PTR text$[rsp]
	lea	rcx, QWORD PTR temptext$[rsp]
	call	vsprintf
; Line 34
	mov	QWORD PTR ap$[rsp], 0
; Line 37
	lea	rdx, OFFSET FLAT:$SG6434
	lea	rcx, OFFSET FLAT:$SG6435
	call	fopen
	mov	QWORD PTR ?log@@3PEAU_iobuf@@EA, rax	; log
	cmp	QWORD PTR ?log@@3PEAU_iobuf@@EA, 0	; log
	jne	SHORT $LN2@addLine
	jmp	SHORT $LN1@addLine
$LN2@addLine:
; Line 39
	lea	r8, QWORD PTR temptext$[rsp]
	lea	rdx, OFFSET FLAT:$SG6436
	mov	rcx, QWORD PTR ?log@@3PEAU_iobuf@@EA	; log
	call	fprintf
; Line 42
	mov	rcx, QWORD PTR ?log@@3PEAU_iobuf@@EA	; log
	call	fclose
$LN1@addLine:
; Line 43
	mov	rcx, rsp
	lea	rdx, OFFSET FLAT:?addLine@CLog@@SAXPEADZZ$rtcFrameData
	call	_RTC_CheckStackVars
	mov	rcx, QWORD PTR __$ArrayPad$[rsp]
	xor	rcx, rsp
	call	__security_check_cookie
	add	rsp, 1136				; 00000470H
	pop	rdi
	ret	0
?addLine@CLog@@SAXPEADZZ ENDP				; CLog::addLine
_TEXT	ENDS
; Function compile flags: /Odtp /RTCsu
;	COMDAT vsprintf
_TEXT	SEGMENT
_Buffer$ = 64
_Format$ = 72
_ArgList$ = 80
vsprintf PROC						; COMDAT
; File C:\Program Files (x86)\Windows Kits\10\Include\10.0.22621.0\ucrt\stdio.h
; Line 1473
$LN3:
	mov	QWORD PTR [rsp+24], r8
	mov	QWORD PTR [rsp+16], rdx
	mov	QWORD PTR [rsp+8], rcx
	push	rdi
	sub	rsp, 48					; 00000030H
; Line 1474
	mov	rax, QWORD PTR _ArgList$[rsp]
	mov	QWORD PTR [rsp+32], rax
	xor	r9d, r9d
	mov	r8, QWORD PTR _Format$[rsp]
	mov	rdx, -1
	mov	rcx, QWORD PTR _Buffer$[rsp]
	call	_vsnprintf_l
; Line 1475
	add	rsp, 48					; 00000030H
	pop	rdi
	ret	0
vsprintf ENDP
_TEXT	ENDS
; Function compile flags: /Odtp /RTCsu
;	COMDAT _vsnprintf_l
_TEXT	SEGMENT
_Result$ = 48
tv74 = 52
_Buffer$ = 80
_BufferCount$ = 88
_Format$ = 96
_Locale$ = 104
_ArgList$ = 112
_vsnprintf_l PROC					; COMDAT
; File C:\Program Files (x86)\Windows Kits\10\Include\10.0.22621.0\ucrt\stdio.h
; Line 1391
$LN5:
	mov	QWORD PTR [rsp+32], r9
	mov	QWORD PTR [rsp+24], r8
	mov	QWORD PTR [rsp+16], rdx
	mov	QWORD PTR [rsp+8], rcx
	push	rdi
	sub	rsp, 64					; 00000040H
; Line 1392
	call	__local_stdio_printf_options
	mov	rax, QWORD PTR [rax]
	or	rax, 1
	mov	rcx, QWORD PTR _ArgList$[rsp]
	mov	QWORD PTR [rsp+40], rcx
	mov	rcx, QWORD PTR _Locale$[rsp]
	mov	QWORD PTR [rsp+32], rcx
	mov	r9, QWORD PTR _Format$[rsp]
	mov	r8, QWORD PTR _BufferCount$[rsp]
	mov	rdx, QWORD PTR _Buffer$[rsp]
	mov	rcx, rax
	call	__stdio_common_vsprintf
	mov	DWORD PTR _Result$[rsp], eax
; Line 1396
	cmp	DWORD PTR _Result$[rsp], 0
	jge	SHORT $LN3@vsnprintf_
	mov	DWORD PTR tv74[rsp], -1
	jmp	SHORT $LN4@vsnprintf_
$LN3@vsnprintf_:
	mov	eax, DWORD PTR _Result$[rsp]
	mov	DWORD PTR tv74[rsp], eax
$LN4@vsnprintf_:
	mov	eax, DWORD PTR tv74[rsp]
; Line 1397
	add	rsp, 64					; 00000040H
	pop	rdi
	ret	0
_vsnprintf_l ENDP
_TEXT	ENDS
; Function compile flags: /Odtp /RTCsu
;	COMDAT fprintf
_TEXT	SEGMENT
_Result$ = 32
_ArgList$ = 56
_Stream$ = 96
_Format$ = 104
fprintf	PROC						; COMDAT
; File C:\Program Files (x86)\Windows Kits\10\Include\10.0.22621.0\ucrt\stdio.h
; Line 837
$LN3:
	mov	QWORD PTR [rsp+16], rdx
	mov	QWORD PTR [rsp+8], rcx
	mov	QWORD PTR [rsp+24], r8
	mov	QWORD PTR [rsp+32], r9
	push	rdi
	sub	rsp, 80					; 00000050H
	lea	rdi, QWORD PTR [rsp+32]
	mov	ecx, 12
	mov	eax, -858993460				; ccccccccH
	rep stosd
	mov	rcx, QWORD PTR [rsp+96]
; Line 840
	lea	rax, QWORD PTR _Format$[rsp+8]
	mov	QWORD PTR _ArgList$[rsp], rax
; Line 841
	mov	r9, QWORD PTR _ArgList$[rsp]
	xor	r8d, r8d
	mov	rdx, QWORD PTR _Format$[rsp]
	mov	rcx, QWORD PTR _Stream$[rsp]
	call	_vfprintf_l
	mov	DWORD PTR _Result$[rsp], eax
; Line 842
	mov	QWORD PTR _ArgList$[rsp], 0
; Line 843
	mov	eax, DWORD PTR _Result$[rsp]
; Line 844
	mov	edi, eax
	mov	rcx, rsp
	lea	rdx, OFFSET FLAT:fprintf$rtcFrameData
	call	_RTC_CheckStackVars
	mov	eax, edi
	add	rsp, 80					; 00000050H
	pop	rdi
	ret	0
fprintf	ENDP
_TEXT	ENDS
; Function compile flags: /Odtp /RTCsu
;	COMDAT _vfprintf_l
_TEXT	SEGMENT
_Stream$ = 64
_Format$ = 72
_Locale$ = 80
_ArgList$ = 88
_vfprintf_l PROC					; COMDAT
; File C:\Program Files (x86)\Windows Kits\10\Include\10.0.22621.0\ucrt\stdio.h
; Line 644
$LN3:
	mov	QWORD PTR [rsp+32], r9
	mov	QWORD PTR [rsp+24], r8
	mov	QWORD PTR [rsp+16], rdx
	mov	QWORD PTR [rsp+8], rcx
	push	rdi
	sub	rsp, 48					; 00000030H
; Line 645
	call	__local_stdio_printf_options
	mov	rcx, QWORD PTR _ArgList$[rsp]
	mov	QWORD PTR [rsp+32], rcx
	mov	r9, QWORD PTR _Locale$[rsp]
	mov	r8, QWORD PTR _Format$[rsp]
	mov	rdx, QWORD PTR _Stream$[rsp]
	mov	rcx, QWORD PTR [rax]
	call	__stdio_common_vfprintf
; Line 646
	add	rsp, 48					; 00000030H
	pop	rdi
	ret	0
_vfprintf_l ENDP
_TEXT	ENDS
; Function compile flags: /Odtp /RTCsu
;	COMDAT __local_stdio_printf_options
_TEXT	SEGMENT
__local_stdio_printf_options PROC			; COMDAT
; File C:\Program Files (x86)\Windows Kits\10\Include\10.0.22621.0\ucrt\corecrt_stdio_config.h
; Line 90
$LN3:
	push	rdi
; Line 92
	lea	rax, OFFSET FLAT:?_OptionsStorage@?1??__local_stdio_printf_options@@9@4_KA ; `__local_stdio_printf_options'::`2'::_OptionsStorage
; Line 93
	pop	rdi
	ret	0
__local_stdio_printf_options ENDP
_TEXT	ENDS
END
